
out/run_script.native:     file format elf64-x86-64

Sections:
Idx Name          Size      VMA               LMA               File off  Algn
  0 .interp       0000001c  0000000000400238  0000000000400238  00000238  2**0
                  CONTENTS, ALLOC, LOAD, READONLY, DATA
  1 .note.ABI-tag 00000020  0000000000400254  0000000000400254  00000254  2**2
                  CONTENTS, ALLOC, LOAD, READONLY, DATA
  2 .gnu.hash     0000001c  0000000000400278  0000000000400278  00000278  2**3
                  CONTENTS, ALLOC, LOAD, READONLY, DATA
  3 .dynsym       00000090  0000000000400298  0000000000400298  00000298  2**3
                  CONTENTS, ALLOC, LOAD, READONLY, DATA
  4 .dynstr       0000004b  0000000000400328  0000000000400328  00000328  2**0
                  CONTENTS, ALLOC, LOAD, READONLY, DATA
  5 .gnu.version  0000000c  0000000000400374  0000000000400374  00000374  2**1
                  CONTENTS, ALLOC, LOAD, READONLY, DATA
  6 .gnu.version_r 00000020  0000000000400380  0000000000400380  00000380  2**3
                  CONTENTS, ALLOC, LOAD, READONLY, DATA
  7 .rela.dyn     00000030  00000000004003a0  00000000004003a0  000003a0  2**3
                  CONTENTS, ALLOC, LOAD, READONLY, DATA
  8 .rela.plt     00000048  00000000004003d0  00000000004003d0  000003d0  2**3
                  CONTENTS, ALLOC, LOAD, READONLY, DATA
  9 .init         00000017  0000000000400418  0000000000400418  00000418  2**2
                  CONTENTS, ALLOC, LOAD, READONLY, CODE
 10 .plt          00000040  0000000000400430  0000000000400430  00000430  2**4
                  CONTENTS, ALLOC, LOAD, READONLY, CODE
 11 .text         000001b2  0000000000400470  0000000000400470  00000470  2**4
                  CONTENTS, ALLOC, LOAD, READONLY, CODE
 12 .fini         00000009  0000000000400624  0000000000400624  00000624  2**2
                  CONTENTS, ALLOC, LOAD, READONLY, CODE
 13 .rodata       0000004c  0000000000400630  0000000000400630  00000630  2**2
                  CONTENTS, ALLOC, LOAD, READONLY, DATA
 14 .eh_frame_hdr 00000044  000000000040067c  000000000040067c  0000067c  2**2
                  CONTENTS, ALLOC, LOAD, READONLY, DATA
 15 .eh_frame     00000108  00000000004006c0  00000000004006c0  000006c0  2**3
                  CONTENTS, ALLOC, LOAD, READONLY, DATA
 16 .init_array   00000008  0000000000600e10  0000000000600e10  00000e10  2**3
                  CONTENTS, ALLOC, LOAD, DATA
 17 .fini_array   00000008  0000000000600e18  0000000000600e18  00000e18  2**3
                  CONTENTS, ALLOC, LOAD, DATA
 18 .dynamic      000001d0  0000000000600e20  0000000000600e20  00000e20  2**3
                  CONTENTS, ALLOC, LOAD, DATA
 19 .got          00000010  0000000000600ff0  0000000000600ff0  00000ff0  2**3
                  CONTENTS, ALLOC, LOAD, DATA
 20 .got.plt      00000030  0000000000601000  0000000000601000  00001000  2**3
                  CONTENTS, ALLOC, LOAD, DATA
 21 .data         00000018  0000000000601030  0000000000601030  00001030  2**3
                  CONTENTS, ALLOC, LOAD, DATA
 22 .bss          00000008  0000000000601048  0000000000601048  00001048  2**0
                  ALLOC
 23 .comment      00000061  0000000000000000  0000000000000000  00001048  2**0
                  CONTENTS, READONLY
 24 .debug_pubnames 0000006c  0000000000000000  0000000000000000  000010a9  2**0
                  CONTENTS, READONLY, DEBUGGING
 25 .debug_info   000000a6  0000000000000000  0000000000000000  00001115  2**0
                  CONTENTS, READONLY, DEBUGGING
 26 .debug_abbrev 00000087  0000000000000000  0000000000000000  000011bb  2**0
                  CONTENTS, READONLY, DEBUGGING
 27 .debug_line   0000005c  0000000000000000  0000000000000000  00001242  2**0
                  CONTENTS, READONLY, DEBUGGING
 28 .debug_str    000000eb  0000000000000000  0000000000000000  0000129e  2**0
                  CONTENTS, READONLY, DEBUGGING
 29 .debug_loc    00000049  0000000000000000  0000000000000000  00001389  2**0
                  CONTENTS, READONLY, DEBUGGING
 30 .debug_macinfo 00000001  0000000000000000  0000000000000000  000013d2  2**0
                  CONTENTS, READONLY, DEBUGGING
 31 .debug_pubtypes 00000023  0000000000000000  0000000000000000  000013d3  2**0
                  CONTENTS, READONLY, DEBUGGING

Disassembly of section .init:

0000000000400418 <_init>:
  400418:	48 83 ec 08          	sub    rsp,0x8
  40041c:	48 8b 05 d5 0b 20 00 	mov    rax,QWORD PTR [rip+0x200bd5]        # 600ff8 <__gmon_start__>
  400423:	48 85 c0             	test   rax,rax
  400426:	74 02                	je     40042a <_init+0x12>
  400428:	ff d0                	call   rax
  40042a:	48 83 c4 08          	add    rsp,0x8
  40042e:	c3                   	ret    

Disassembly of section .plt:

0000000000400430 <.plt>:
  400430:	ff 35 d2 0b 20 00    	push   QWORD PTR [rip+0x200bd2]        # 601008 <_GLOBAL_OFFSET_TABLE_+0x8>
  400436:	ff 25 d4 0b 20 00    	jmp    QWORD PTR [rip+0x200bd4]        # 601010 <_GLOBAL_OFFSET_TABLE_+0x10>
  40043c:	0f 1f 40 00          	nop    DWORD PTR [rax+0x0]

0000000000400440 <strcpy@plt>:
  400440:	ff 25 d2 0b 20 00    	jmp    QWORD PTR [rip+0x200bd2]        # 601018 <strcpy@GLIBC_2.2.5>
  400446:	68 00 00 00 00       	push   0x0
  40044b:	e9 e0 ff ff ff       	jmp    400430 <.plt>

0000000000400450 <puts@plt>:
  400450:	ff 25 ca 0b 20 00    	jmp    QWORD PTR [rip+0x200bca]        # 601020 <puts@GLIBC_2.2.5>
  400456:	68 01 00 00 00       	push   0x1
  40045b:	e9 d0 ff ff ff       	jmp    400430 <.plt>

0000000000400460 <printf@plt>:
  400460:	ff 25 c2 0b 20 00    	jmp    QWORD PTR [rip+0x200bc2]        # 601028 <printf@GLIBC_2.2.5>
  400466:	68 02 00 00 00       	push   0x2
  40046b:	e9 c0 ff ff ff       	jmp    400430 <.plt>

Disassembly of section .text:

0000000000400470 <_start>:
  400470:	31 ed                	xor    ebp,ebp
  400472:	49 89 d1             	mov    r9,rdx
  400475:	5e                   	pop    rsi
  400476:	48 89 e2             	mov    rdx,rsp
  400479:	48 83 e4 f0          	and    rsp,0xfffffffffffffff0
  40047d:	50                   	push   rax
  40047e:	54                   	push   rsp
  40047f:	49 c7 c0 20 06 40 00 	mov    r8,0x400620
  400486:	48 c7 c1 b0 05 40 00 	mov    rcx,0x4005b0
  40048d:	48 c7 c7 60 05 40 00 	mov    rdi,0x400560
  400494:	ff 15 56 0b 20 00    	call   QWORD PTR [rip+0x200b56]        # 600ff0 <__libc_start_main@GLIBC_2.2.5>
  40049a:	f4                   	hlt    
  40049b:	0f 1f 44 00 00       	nop    DWORD PTR [rax+rax*1+0x0]

00000000004004a0 <_dl_relocate_static_pie>:
  4004a0:	f3 c3                	repz ret 
  4004a2:	66 2e 0f 1f 84 00 00 	nop    WORD PTR cs:[rax+rax*1+0x0]
  4004a9:	00 00 00 
  4004ac:	0f 1f 40 00          	nop    DWORD PTR [rax+0x0]

00000000004004b0 <deregister_tm_clones>:
  4004b0:	55                   	push   rbp
  4004b1:	b8 48 10 60 00       	mov    eax,0x601048
  4004b6:	48 3d 48 10 60 00    	cmp    rax,0x601048
  4004bc:	48 89 e5             	mov    rbp,rsp
  4004bf:	74 17                	je     4004d8 <deregister_tm_clones+0x28>
  4004c1:	b8 00 00 00 00       	mov    eax,0x0
  4004c6:	48 85 c0             	test   rax,rax
  4004c9:	74 0d                	je     4004d8 <deregister_tm_clones+0x28>
  4004cb:	5d                   	pop    rbp
  4004cc:	bf 48 10 60 00       	mov    edi,0x601048
  4004d1:	ff e0                	jmp    rax
  4004d3:	0f 1f 44 00 00       	nop    DWORD PTR [rax+rax*1+0x0]
  4004d8:	5d                   	pop    rbp
  4004d9:	c3                   	ret    
  4004da:	66 0f 1f 44 00 00    	nop    WORD PTR [rax+rax*1+0x0]

00000000004004e0 <register_tm_clones>:
  4004e0:	be 48 10 60 00       	mov    esi,0x601048
  4004e5:	55                   	push   rbp
  4004e6:	48 81 ee 48 10 60 00 	sub    rsi,0x601048
  4004ed:	48 89 e5             	mov    rbp,rsp
  4004f0:	48 c1 fe 03          	sar    rsi,0x3
  4004f4:	48 89 f0             	mov    rax,rsi
  4004f7:	48 c1 e8 3f          	shr    rax,0x3f
  4004fb:	48 01 c6             	add    rsi,rax
  4004fe:	48 d1 fe             	sar    rsi,1
  400501:	74 15                	je     400518 <register_tm_clones+0x38>
  400503:	b8 00 00 00 00       	mov    eax,0x0
  400508:	48 85 c0             	test   rax,rax
  40050b:	74 0b                	je     400518 <register_tm_clones+0x38>
  40050d:	5d                   	pop    rbp
  40050e:	bf 48 10 60 00       	mov    edi,0x601048
  400513:	ff e0                	jmp    rax
  400515:	0f 1f 00             	nop    DWORD PTR [rax]
  400518:	5d                   	pop    rbp
  400519:	c3                   	ret    
  40051a:	66 0f 1f 44 00 00    	nop    WORD PTR [rax+rax*1+0x0]

0000000000400520 <__do_global_dtors_aux>:
  400520:	80 3d 21 0b 20 00 00 	cmp    BYTE PTR [rip+0x200b21],0x0        # 601048 <__TMC_END__>
  400527:	75 17                	jne    400540 <__do_global_dtors_aux+0x20>
  400529:	55                   	push   rbp
  40052a:	48 89 e5             	mov    rbp,rsp
  40052d:	e8 7e ff ff ff       	call   4004b0 <deregister_tm_clones>
  400532:	c6 05 0f 0b 20 00 01 	mov    BYTE PTR [rip+0x200b0f],0x1        # 601048 <__TMC_END__>
  400539:	5d                   	pop    rbp
  40053a:	c3                   	ret    
  40053b:	0f 1f 44 00 00       	nop    DWORD PTR [rax+rax*1+0x0]
  400540:	f3 c3                	repz ret 
  400542:	0f 1f 40 00          	nop    DWORD PTR [rax+0x0]
  400546:	66 2e 0f 1f 84 00 00 	nop    WORD PTR cs:[rax+rax*1+0x0]
  40054d:	00 00 00 

0000000000400550 <frame_dummy>:
  400550:	55                   	push   rbp
  400551:	48 89 e5             	mov    rbp,rsp
  400554:	5d                   	pop    rbp
  400555:	eb 89                	jmp    4004e0 <register_tm_clones>
  400557:	66 0f 1f 84 00 00 00 	nop    WORD PTR [rax+rax*1+0x0]
  40055e:	00 00 

0000000000400560 <main>:
  400560:	50                   	push   rax
  400561:	48 8b 3d d8 0a 20 00 	mov    rdi,QWORD PTR [rip+0x200ad8]        # 601040 <other_data>
  400568:	e8 e3 fe ff ff       	call   400450 <puts@plt>
  40056d:	bf 49 06 40 00       	mov    edi,0x400649
  400572:	e8 d9 fe ff ff       	call   400450 <puts@plt>
  400577:	bf 49 06 40 00       	mov    edi,0x400649
  40057c:	31 c0                	xor    eax,eax
  40057e:	e8 dd fe ff ff       	call   400460 <printf@plt>
  400583:	31 c0                	xor    eax,eax
  400585:	59                   	pop    rcx
  400586:	c3                   	ret    
  400587:	66 0f 1f 84 00 00 00 	nop    WORD PTR [rax+rax*1+0x0]
  40058e:	00 00 

0000000000400590 <do_something_stupid_which_allows_write_access>:
  400590:	50                   	push   rax
  400591:	48 89 f8             	mov    rax,rdi
  400594:	48 8b 3d a5 0a 20 00 	mov    rdi,QWORD PTR [rip+0x200aa5]        # 601040 <other_data>
  40059b:	48 89 c6             	mov    rsi,rax
  40059e:	e8 9d fe ff ff       	call   400440 <strcpy@plt>
  4005a3:	bf 39 06 40 00       	mov    edi,0x400639
  4005a8:	58                   	pop    rax
  4005a9:	e9 a2 fe ff ff       	jmp    400450 <puts@plt>
  4005ae:	66 90                	xchg   ax,ax

00000000004005b0 <__libc_csu_init>:
  4005b0:	41 57                	push   r15
  4005b2:	41 56                	push   r14
  4005b4:	49 89 d7             	mov    r15,rdx
  4005b7:	41 55                	push   r13
  4005b9:	41 54                	push   r12
  4005bb:	4c 8d 25 4e 08 20 00 	lea    r12,[rip+0x20084e]        # 600e10 <__frame_dummy_init_array_entry>
  4005c2:	55                   	push   rbp
  4005c3:	48 8d 2d 4e 08 20 00 	lea    rbp,[rip+0x20084e]        # 600e18 <__init_array_end>
  4005ca:	53                   	push   rbx
  4005cb:	41 89 fd             	mov    r13d,edi
  4005ce:	49 89 f6             	mov    r14,rsi
  4005d1:	4c 29 e5             	sub    rbp,r12
  4005d4:	48 83 ec 08          	sub    rsp,0x8
  4005d8:	48 c1 fd 03          	sar    rbp,0x3
  4005dc:	e8 37 fe ff ff       	call   400418 <_init>
  4005e1:	48 85 ed             	test   rbp,rbp
  4005e4:	74 20                	je     400606 <__libc_csu_init+0x56>
  4005e6:	31 db                	xor    ebx,ebx
  4005e8:	0f 1f 84 00 00 00 00 	nop    DWORD PTR [rax+rax*1+0x0]
  4005ef:	00 
  4005f0:	4c 89 fa             	mov    rdx,r15
  4005f3:	4c 89 f6             	mov    rsi,r14
  4005f6:	44 89 ef             	mov    edi,r13d
  4005f9:	41 ff 14 dc          	call   QWORD PTR [r12+rbx*8]
  4005fd:	48 83 c3 01          	add    rbx,0x1
  400601:	48 39 dd             	cmp    rbp,rbx
  400604:	75 ea                	jne    4005f0 <__libc_csu_init+0x40>
  400606:	48 83 c4 08          	add    rsp,0x8
  40060a:	5b                   	pop    rbx
  40060b:	5d                   	pop    rbp
  40060c:	41 5c                	pop    r12
  40060e:	41 5d                	pop    r13
  400610:	41 5e                	pop    r14
  400612:	41 5f                	pop    r15
  400614:	c3                   	ret    
  400615:	90                   	nop
  400616:	66 2e 0f 1f 84 00 00 	nop    WORD PTR cs:[rax+rax*1+0x0]
  40061d:	00 00 00 

0000000000400620 <__libc_csu_fini>:
  400620:	f3 c3                	repz ret 

Disassembly of section .fini:

0000000000400624 <_fini>:
  400624:	48 83 ec 08          	sub    rsp,0x8
  400628:	48 83 c4 08          	add    rsp,0x8
  40062c:	c3                   	ret    
