	.text
	.file	"vuln.c"
	.globl	stack_based_buffer_overflow # -- Begin function stack_based_buffer_overflow
	.p2align	4, 0x90
	.type	stack_based_buffer_overflow,@function
stack_based_buffer_overflow:            # @stack_based_buffer_overflow
	.cfi_startproc
# %bb.0:
	pushq	%rbx
	.cfi_def_cfa_offset 16
	subq	$32, %rsp
	.cfi_def_cfa_offset 48
	.cfi_offset %rbx, -16
	movq	%rsp, %rbx
	movl	$.L.str, %edi
	xorl	%eax, %eax
	movq	%rbx, %rsi
	callq	__isoc99_scanf
	movq	%rbx, %rdi
	callq	puts
	addq	$32, %rsp
	popq	%rbx
	retq
.Lfunc_end0:
	.size	stack_based_buffer_overflow, .Lfunc_end0-stack_based_buffer_overflow
	.cfi_endproc
                                        # -- End function
	.globl	write_file              # -- Begin function write_file
	.p2align	4, 0x90
	.type	write_file,@function
write_file:                             # @write_file
	.cfi_startproc
# %bb.0:
	pushq	%rbx
	.cfi_def_cfa_offset 16
	.cfi_offset %rbx, -16
	movl	$.L.str.1, %edi
	movl	$.L.str.2, %esi
	callq	fopen
	movq	%rax, %rbx
	testq	%rbx, %rbx
	je	.LBB1_1
# %bb.2:
	movl	$.L.str.4, %edi
	movl	$28, %esi
	movl	$1, %edx
	movq	%rbx, %rcx
	callq	fwrite
	movq	%rbx, %rdi
	popq	%rbx
	jmp	fclose                  # TAILCALL
.LBB1_1:
	movl	$.Lstr, %edi
	callq	puts
	movl	$1, %edi
	callq	exit
.Lfunc_end1:
	.size	write_file, .Lfunc_end1-write_file
	.cfi_endproc
                                        # -- End function
	.globl	main                    # -- Begin function main
	.p2align	4, 0x90
	.type	main,@function
main:                                   # @main
	.cfi_startproc
# %bb.0:
	pushq	%rax
	.cfi_def_cfa_offset 16
	callq	stack_based_buffer_overflow
	callq	write_file
	xorl	%eax, %eax
	popq	%rcx
	retq
.Lfunc_end2:
	.size	main, .Lfunc_end2-main
	.cfi_endproc
                                        # -- End function
	.type	.L.str,@object          # @.str
	.section	.rodata.str1.1,"aMS",@progbits,1
.L.str:
	.asciz	"%[^\n]"
	.size	.L.str, 6

	.type	.L.str.1,@object        # @.str.1
.L.str.1:
	.asciz	"file.txt"
	.size	.L.str.1, 9

	.type	.L.str.2,@object        # @.str.2
.L.str.2:
	.asciz	"w"
	.size	.L.str.2, 2

	.type	.L.str.4,@object        # @.str.4
.L.str.4:
	.asciz	"Write constant text to file."
	.size	.L.str.4, 29

	.type	.Lstr,@object           # @str
	.section	.rodata.str1.16,"aMS",@progbits,1
	.p2align	4
.Lstr:
	.asciz	"Error opening file."
	.size	.Lstr, 20


	.ident	"clang version 6.0.0-1ubuntu2 (tags/RELEASE_600/final)"
	.section	".note.GNU-stack","",@progbits
