
rust-wasi.wasm:	file format wasm 0x1

Sections:

     Type start=0x0000000a end=0x00000074 (size=0x0000006a) count: 16
   Import start=0x00000077 end=0x000001ac (size=0x00000135) count: 8
 Function start=0x000001af end=0x000002b8 (size=0x00000109) count: 263
    Table start=0x000002ba end=0x000002bf (size=0x00000005) count: 1
   Memory start=0x000002c1 end=0x000002c4 (size=0x00000003) count: 1
   Global start=0x000002c6 end=0x000002df (size=0x00000019) count: 3
   Export start=0x000002e1 end=0x00000328 (size=0x00000047) count: 6
     Elem start=0x0000032b end=0x000003b7 (size=0x0000008c) count: 1
     Code start=0x000003bb end=0x0000f5ea (size=0x0000f22f) count: 263
     Data start=0x0000f5ed end=0x0001271c (size=0x0000312f) count: 3
   Custom start=0x00012720 end=0x0008add5 (size=0x000786b5) ".debug_info"
   Custom start=0x0008add7 end=0x0008adee (size=0x00000017) ".debug_macinfo"
   Custom start=0x0008adf2 end=0x00098445 (size=0x0000d653) ".debug_pubtypes"
   Custom start=0x00098449 end=0x000c770f (size=0x0002f2c6) ".debug_ranges"
   Custom start=0x000c7713 end=0x000cbeda (size=0x000047c7) ".debug_aranges"
   Custom start=0x000cbedd end=0x000cd067 (size=0x0000118a) ".debug_abbrev"
   Custom start=0x000cd06b end=0x0011738c (size=0x0004a321) ".debug_line"
   Custom start=0x00117390 end=0x001adc51 (size=0x000968c1) ".debug_str"
   Custom start=0x001adc55 end=0x001d3271 (size=0x0002561c) ".debug_pubnames"
   Custom start=0x001d3275 end=0x001d76f3 (size=0x0000447e) "name"
   Custom start=0x001d76f5 end=0x001d7767 (size=0x00000072) "producers"

Section Details:

Type[16]:
 - type[0] () -> nil
 - type[1] (i32) -> nil
 - type[2] (i32) -> i64
 - type[3] (i32, i32) -> i32
 - type[4] (i32, i32, i32, i32) -> nil
 - type[5] (i32, i32) -> nil
 - type[6] (i32, i32, i32) -> nil
 - type[7] (i32) -> i32
 - type[8] (i32, i32, i32) -> i32
 - type[9] (i32, i32, i32, i32) -> i32
 - type[10] (i32, i32, i32, i32, i32) -> nil
 - type[11] () -> i32
 - type[12] (i32, i32, i32, i32, i32) -> i32
 - type[13] (i64, i32, i32) -> i32
 - type[14] (i32, i32, i32, i32, i32, i32) -> i32
 - type[15] (i32, i32, i32, i32, i32, i32, i32) -> i32
Import[8]:
 - func[0] sig=1 <__wasi_proc_exit> <- wasi_snapshot_preview1.proc_exit
 - func[1] sig=3 <args_get> <- wasi_snapshot_preview1.args_get
 - func[2] sig=3 <args_sizes_get> <- wasi_snapshot_preview1.args_sizes_get
 - func[3] sig=9 <fd_write> <- wasi_snapshot_preview1.fd_write
 - func[4] sig=3 <__wasi_fd_prestat_get> <- wasi_snapshot_preview1.fd_prestat_get
 - func[5] sig=8 <__wasi_fd_prestat_dir_name> <- wasi_snapshot_preview1.fd_prestat_dir_name
 - func[6] sig=3 <__wasi_environ_sizes_get> <- wasi_snapshot_preview1.environ_sizes_get
 - func[7] sig=3 <__wasi_environ_get> <- wasi_snapshot_preview1.environ_get
Function[263]:
 - func[8] sig=0 <__wasm_call_ctors>
 - func[9] sig=0 <_start>
 - func[10] sig=7 <_ZN3std2rt10lang_start28_$u7b$$u7b$closure$u7d$$u7d$17hcf0a53e73a737b14E>
 - func[11] sig=7 <_ZN4core3ops8function6FnOnce40call_once$u7b$$u7b$vtable.shim$u7d$$u7d$17h7181aab030b356c7E>
 - func[12] sig=1 <_ZN4core3ptr18real_drop_in_place17h5b9eb712c953141eE>
 - func[13] sig=6 <_ZN5alloc7raw_vec19RawVec$LT$T$C$A$GT$7reserve17ha2198ae13467cc95E>
 - func[14] sig=3 <_ZN4core3fmt3num52_$LT$impl$u20$core..fmt..Debug$u20$for$u20$isize$GT$3fmt17hf4e921414d427e32E>
 - func[15] sig=10 <_ZN4main4leaf17he80d23a2a9f2228bE>
 - func[16] sig=5 <_ZN4main12intermediate17h1a902bac6af2874cE>
 - func[17] sig=0 <_ZN4main4main17h9e0ea2b04575dfdbE>
 - func[18] sig=11 <__original_main>
 - func[19] sig=3 <main>
 - func[20] sig=4 <_ZN4core5slice29_$LT$impl$u20$$u5b$T$u5d$$GT$15copy_from_slice17h9c08b7267d289810E>
 - func[21] sig=3 <_ZN42_$LT$$RF$T$u20$as$u20$core..fmt..Debug$GT$3fmt17h97a4b0741912e1acE>
 - func[22] sig=3 <_ZN44_$LT$$RF$T$u20$as$u20$core..fmt..Display$GT$3fmt17hcb50ccd46cfffa86E>
 - func[23] sig=3 <_ZN52_$LT$$BP$const$u20$T$u20$as$u20$core..fmt..Debug$GT$3fmt17h36ad9990371e35ecE>
 - func[24] sig=3 <_ZN52_$LT$$BP$const$u20$T$u20$as$u20$core..fmt..Debug$GT$3fmt17h9743d9e05b4bdf6eE>
 - func[25] sig=3 <__rust_alloc>
 - func[26] sig=6 <__rust_dealloc>
 - func[27] sig=9 <__rust_realloc>
 - func[28] sig=2 <_ZN36_$LT$T$u20$as$u20$core..any..Any$GT$7type_id17h0f8d2bd32519b0bcE>
 - func[29] sig=2 <_ZN36_$LT$T$u20$as$u20$core..any..Any$GT$7type_id17h168fc26cbdda1442E>
 - func[30] sig=2 <_ZN36_$LT$T$u20$as$u20$core..any..Any$GT$7type_id17h5d6a88253efd5b28E>
 - func[31] sig=8 <_ZN73_$LT$std..sys_common..os_str_bytes..Slice$u20$as$u20$core..fmt..Debug$GT$3fmt17h4065989a45dde40cE>
 - func[32] sig=3 <_ZN42_$LT$$RF$T$u20$as$u20$core..fmt..Debug$GT$3fmt17h33e9d5b249d20379E>
 - func[33] sig=3 <_ZN42_$LT$$RF$T$u20$as$u20$core..fmt..Debug$GT$3fmt17h9153e35d1f393cc8E>
 - func[34] sig=3 <_ZN42_$LT$$RF$T$u20$as$u20$core..fmt..Debug$GT$3fmt17hf6db0e1716810508E>
 - func[35] sig=3 <_ZN44_$LT$$RF$T$u20$as$u20$core..fmt..Display$GT$3fmt17hcd40a1afa9d9ce57E>
 - func[36] sig=3 <_ZN44_$LT$$RF$T$u20$as$u20$core..fmt..Display$GT$3fmt17hcec0264094fa939fE>
 - func[37] sig=3 <_ZN45_$LT$$RF$T$u20$as$u20$core..fmt..UpperHex$GT$3fmt17h56eb96d5732f91c6E>
 - func[38] sig=3 <_ZN4core3fmt5Write10write_char17h60efdbdfd77cd04aE>
 - func[39] sig=4 <_ZN3std2io5Write9write_all17h2b497641c383c1c2E>
 - func[40] sig=3 <_ZN4core3fmt5Write10write_char17hc15d9e049e32c338E>
 - func[41] sig=4 <_ZN3std2io5Write9write_all17h4c673540e22a7825E>
 - func[42] sig=3 <_ZN4core3fmt5Write9write_fmt17h2438519d8d7db450E>
 - func[43] sig=3 <_ZN4core3fmt5Write9write_fmt17h9ac7a778133567cdE>
 - func[44] sig=1 <_ZN3std9panicking12default_hook17had55ad0811906711E>
 - func[45] sig=5 <_ZN4core3ops8function6FnOnce40call_once$u7b$$u7b$vtable.shim$u7d$$u7d$17h5217946a25668fdeE>
 - func[46] sig=5 <_ZN3std4sync4once4Once9call_once28_$u7b$$u7b$closure$u7d$$u7d$17hca3f28696bfe6018E>
 - func[47] sig=6 <_ZN3std9panicking11begin_panic17h4c37f88b45d6339dE>
 - func[48] sig=8 <_ZN4core3ops8function6FnOnce40call_once$u7b$$u7b$vtable.shim$u7d$$u7d$17h9eb7082a48580bd9E>
 - func[49] sig=1 <_ZN4core3ops8function6FnOnce40call_once$u7b$$u7b$vtable.shim$u7d$$u7d$17hab3cb5efd3f8166fE>
 - func[50] sig=1 <_ZN5alloc4sync12Arc$LT$T$GT$9drop_slow17h75d572a3085302edE>
 - func[51] sig=1 <_ZN4core3ptr18real_drop_in_place17h002503b23174cca1E>
 - func[52] sig=1 <_ZN4core3ptr18real_drop_in_place17h1008d021a780f350E>
 - func[53] sig=1 <_ZN4core3ptr18real_drop_in_place17h14c964a2795c8756E>
 - func[54] sig=1 <_ZN4core3ptr18real_drop_in_place17h1a273616ec4b5ac9E>
 - func[55] sig=1 <_ZN4core3ptr18real_drop_in_place17h2b3b83b2a1406e9dE>
 - func[56] sig=1 <_ZN4core3ptr18real_drop_in_place17h3e8a74f436f6b428E>
 - func[57] sig=1 <_ZN4core3ptr18real_drop_in_place17ha7c2802620da5d36E>
 - func[58] sig=1 <_ZN4core3ptr18real_drop_in_place17hd65976e8626b1b88E>
 - func[59] sig=1 <_ZN4core3ptr18real_drop_in_place17hffd50c820102285cE>
 - func[60] sig=7 <_ZN4core6option15Option$LT$T$GT$6unwrap17h3f1ff6c63ca75a16E>
 - func[61] sig=7 <_ZN4core6option15Option$LT$T$GT$6unwrap17hbe87f8a73e0525b2E>
 - func[62] sig=3 <_ZN50_$LT$$RF$mut$u20$W$u20$as$u20$core..fmt..Write$GT$10write_char17h3ae93dd1c0eae2d8E>
 - func[63] sig=3 <_ZN50_$LT$$RF$mut$u20$W$u20$as$u20$core..fmt..Write$GT$10write_char17h52ab12c1a9a7ed26E>
 - func[64] sig=3 <_ZN50_$LT$$RF$mut$u20$W$u20$as$u20$core..fmt..Write$GT$10write_char17h56a1257173aa70e6E>
 - func[65] sig=5 <_ZN5alloc3vec12Vec$LT$T$GT$7reserve17hb25b281955882348E>
 - func[66] sig=3 <_ZN50_$LT$$RF$mut$u20$W$u20$as$u20$core..fmt..Write$GT$9write_fmt17h84d4595f10c6e9bdE>
 - func[67] sig=3 <_ZN50_$LT$$RF$mut$u20$W$u20$as$u20$core..fmt..Write$GT$9write_fmt17he9274de8420ffd84E>
 - func[68] sig=3 <_ZN50_$LT$$RF$mut$u20$W$u20$as$u20$core..fmt..Write$GT$9write_fmt17hf2a77fb1f44d03b9E>
 - func[69] sig=8 <_ZN50_$LT$$RF$mut$u20$W$u20$as$u20$core..fmt..Write$GT$9write_str17h343be05a3736b678E>
 - func[70] sig=8 <_ZN50_$LT$$RF$mut$u20$W$u20$as$u20$core..fmt..Write$GT$9write_str17h7543301949989357E>
 - func[71] sig=8 <_ZN50_$LT$$RF$mut$u20$W$u20$as$u20$core..fmt..Write$GT$9write_str17h7b56425ef82031b0E>
 - func[72] sig=1 <_ZN5alloc4sync12Arc$LT$T$GT$9drop_slow17hd1e1a2ec6dd20ab9E>
 - func[73] sig=5 <_ZN3std2io8buffered18BufWriter$LT$W$GT$9flush_buf17h1e803465f6444bc3E>
 - func[74] sig=0 <_ZN5alloc7raw_vec19RawVec$LT$T$C$A$GT$11allocate_in28_$u7b$$u7b$closure$u7d$$u7d$17h31c8dbb160d31216E>
 - func[75] sig=3 <_ZN60_$LT$alloc..string..String$u20$as$u20$core..fmt..Display$GT$3fmt17h8bf31a0875beb2d8E>
 - func[76] sig=5 <_ZN83_$LT$alloc..boxed..Box$LT$F$GT$$u20$as$u20$core..ops..function..FnOnce$LT$A$GT$$GT$9call_once17h471dcd76e3cc0616E>
 - func[77] sig=7 <_ZN3std10sys_common11thread_info10ThreadInfo4with28_$u7b$$u7b$closure$u7d$$u7d$17he4fbfdba5ffe7524E>
 - func[78] sig=0 <_ZN3std6thread4park17hfc506fb04ca50a64E>
 - func[79] sig=5 <_ZN3std4sync7condvar7Condvar6verify17he54d47cc2b03c159E>
 - func[80] sig=5 <_ZN3std10sys_common7condvar7Condvar4wait17h4a05f079cb079294E>
 - func[81] sig=5 <_ZN3std9panicking15begin_panic_fmt17h6ebfed9e714cf511E>
 - func[82] sig=7 <_ZN3std6thread6Thread3new17h6e1b1f283a53e9ccE>
 - func[83] sig=5 <_ZN3std3ffi5c_str7CString18from_vec_unchecked17h5e469fd28170e461E>
 - func[84] sig=1 <_ZN3std6thread6Thread6unpark17h94e6706e18930922E>
 - func[85] sig=6 <_ZN3std3env7_var_os17h654abe0d5110b1baE>
 - func[86] sig=1 <_ZN3std3sys4wasi11unsupported17h2c418a7ed20a0567E>
 - func[87] sig=5 <_ZN3std3ffi5c_str104_$LT$impl$u20$core..convert..From$LT$std..ffi..c_str..NulError$GT$$u20$for$u20$std..io..error..Error$GT$4from17h68453f96202dc28eE>
 - func[88] sig=3 <_ZN60_$LT$std..io..error..Error$u20$as$u20$core..fmt..Display$GT$3fmt17hab33489ae32428e1E>
 - func[89] sig=3 <_ZN55_$LT$std..path..Display$u20$as$u20$core..fmt..Debug$GT$3fmt17h0986e0b7a0364423E>
 - func[90] sig=1 <_ZN3std3env4args17h5d6872dcdc60322aE>
 - func[91] sig=1 <_ZN3std3env7args_os17hd970d5551c7eb2e0E>
 - func[92] sig=5 <_ZN73_$LT$std..env..Args$u20$as$u20$core..iter..traits..iterator..Iterator$GT$4next17h130ad00728ed1b35E>
 - func[93] sig=5 <_ZN3std5error5Error5cause17h208489695af0fdeeE>
 - func[94] sig=2 <_ZN3std5error5Error7type_id17he93b19cfb2e8e2acE>
 - func[95] sig=7 <_ZN3std5error5Error9backtrace17h1368d825fc8df78cE>
 - func[96] sig=5 <_ZN243_$LT$std..error..$LT$impl$u20$core..convert..From$LT$alloc..string..String$GT$$u20$for$u20$alloc..boxed..Box$LT$dyn$u20$std..error..Error$u2b$core..marker..Send$u2b$core..marker..Sync$GT$$GT$..from..StringError$u20$as$u20$std..error..Error$GT$11description17h0caa1b2504394f01E>
 - func[97] sig=3 <_ZN244_$LT$std..error..$LT$impl$u20$core..convert..From$LT$alloc..string..String$GT$$u20$for$u20$alloc..boxed..Box$LT$dyn$u20$std..error..Error$u2b$core..marker..Send$u2b$core..marker..Sync$GT$$GT$..from..StringError$u20$as$u20$core..fmt..Display$GT$3fmt17h4896a95c62927851E>
 - func[98] sig=3 <_ZN242_$LT$std..error..$LT$impl$u20$core..convert..From$LT$alloc..string..String$GT$$u20$for$u20$alloc..boxed..Box$LT$dyn$u20$std..error..Error$u2b$core..marker..Send$u2b$core..marker..Sync$GT$$GT$..from..StringError$u20$as$u20$core..fmt..Debug$GT$3fmt17hf375d57eb464f65fE>
 - func[99] sig=7 <_ZN3std3sys4wasi17decode_error_kind17haa3a99fbe8bf835fE>
 - func[100] sig=4 <_ZN72_$LT$std..io..buffered..BufWriter$LT$W$GT$$u20$as$u20$std..io..Write$GT$5write17h1cf6435e8f0d6314E>
 - func[101] sig=4 <_ZN73_$LT$std..io..buffered..LineWriter$LT$W$GT$$u20$as$u20$std..io..Write$GT$5write17h88167627bef1f5b5E>
 - func[102] sig=5 <_ZN3std3sys4wasi2os12error_string17h4a5d1b4d37616116E>
 - func[103] sig=4 <_ZN3std2io5impls71_$LT$impl$u20$std..io..Write$u20$for$u20$alloc..boxed..Box$LT$W$GT$$GT$5write17h1c9ea699209651c9E>
 - func[104] sig=4 <_ZN3std2io5impls71_$LT$impl$u20$std..io..Write$u20$for$u20$alloc..boxed..Box$LT$W$GT$$GT$14write_vectored17h1600ea5da08cdc03E>
 - func[105] sig=5 <_ZN3std2io5impls71_$LT$impl$u20$std..io..Write$u20$for$u20$alloc..boxed..Box$LT$W$GT$$GT$5flush17hee9bf9fcdcb912feE>
 - func[106] sig=4 <_ZN3std2io5impls71_$LT$impl$u20$std..io..Write$u20$for$u20$alloc..boxed..Box$LT$W$GT$$GT$9write_all17h90beacfdfa1f3b4dE>
 - func[107] sig=6 <_ZN3std2io5impls71_$LT$impl$u20$std..io..Write$u20$for$u20$alloc..boxed..Box$LT$W$GT$$GT$9write_fmt17h0f033bf5e9e3c25bE>
 - func[108] sig=4 <_ZN60_$LT$std..io..stdio..StderrRaw$u20$as$u20$std..io..Write$GT$5write17h4e43e82542fc3b2fE>
 - func[109] sig=3 <_ZN3std10sys_common11at_exit_imp4push17h19d98699c9c6e025E>
 - func[110] sig=11 <_ZN3std2io5stdio6stdout17h80e5048511b22f87E>
 - func[111] sig=6 <_ZN57_$LT$std..io..stdio..Stdout$u20$as$u20$std..io..Write$GT$9write_fmt17h77bee4200809680fE>
 - func[112] sig=6 <_ZN3std2io5stdio9set_panic17h667ab54a2f5594a1E>
 - func[113] sig=1 <_ZN3std2io5stdio6_print17hd34db9e38b7e5054E>
 - func[114] sig=4 <_ZN3std2io5Write14write_vectored17h353d72a3a24ef542E>
 - func[115] sig=6 <_ZN3std2io5Write9write_fmt17he4f9e0467028fa4dE>
 - func[116] sig=8 <_ZN80_$LT$std..io..Write..write_fmt..Adaptor$LT$T$GT$$u20$as$u20$core..fmt..Write$GT$9write_str17h1bf561aa9168750dE>
 - func[117] sig=8 <_ZN80_$LT$std..io..Write..write_fmt..Adaptor$LT$T$GT$$u20$as$u20$core..fmt..Write$GT$9write_str17h4e79fe03d48f26f2E>
 - func[118] sig=3 <_ZN55_$LT$std..path..PathBuf$u20$as$u20$core..fmt..Debug$GT$3fmt17haf00f8624de4aae8E>
 - func[119] sig=5 <_ZN59_$LT$std..process..ChildStdin$u20$as$u20$std..io..Write$GT$5flush17h09bba869abdaa1d8E>
 - func[120] sig=0 <_ZN3std7process5abort17hb8a2b6667846dd65E>
 - func[121] sig=0 <_ZN3std3sys4wasi14abort_internal17he4f0a6618c91d182E>
 - func[122] sig=4 <_ZN3std4sync4once4Once10call_inner17h9ff98aa059748033E>
 - func[123] sig=1 <_ZN70_$LT$std..sync..once..WaiterQueue$u20$as$u20$core..ops..drop..Drop$GT$4drop17h520a864168252b15E>
 - func[124] sig=3 <_ZN91_$LT$std..sys_common..backtrace.._print..DisplayBacktrace$u20$as$u20$core..fmt..Display$GT$3fmt17hc9f54135ac839bf3E>
 - func[125] sig=8 <_ZN3std10sys_common9backtrace10_print_fmt28_$u7b$$u7b$closure$u7d$$u7d$17hfde964fa31647e6bE>
 - func[126] sig=3 <_ZN3std10sys_common9backtrace28__rust_begin_short_backtrace17h9a086315f308a9f7E>
 - func[127] sig=5 <_ZN3std3sys4wasi7condvar7Condvar4wait17ha1fd694d92639d58E>
 - func[128] sig=3 <_ZN82_$LT$std..sys_common..poison..PoisonError$LT$T$GT$$u20$as$u20$core..fmt..Debug$GT$3fmt17h492372f491e0be27E>
 - func[129] sig=1 <_ZN76_$LT$std..sys_common..thread_local..Key$u20$as$u20$core..ops..drop..Drop$GT$4drop17h1c8ff39e518cfb04E>
 - func[130] sig=1 <_ZN3std10sys_common4util10dumb_print17h3a1fcafb52022fe9E>
 - func[131] sig=1 <_ZN3std10sys_common4util5abort17h66713edd5181f7feE>
 - func[132] sig=5 <_ZN3std5alloc24default_alloc_error_hook17h42d9c6ae543c8dd7E>
 - func[133] sig=5 <rust_oom>
 - func[134] sig=3 <__rdl_alloc>
 - func[135] sig=6 <__rdl_dealloc>
 - func[136] sig=9 <__rdl_realloc>
 - func[137] sig=6 <_ZN3std9panicking12default_hook28_$u7b$$u7b$closure$u7d$$u7d$17haed2194222b3e512E>
 - func[138] sig=1 <_ZN3std9panicking3try7do_call17hba2245c23b34bfc8E>
 - func[139] sig=1 <rust_begin_unwind>
 - func[140] sig=4 <_ZN3std9panicking20rust_panic_with_hook17h7f90b1acd5ff521cE>
 - func[141] sig=5 <_ZN90_$LT$std..panicking..begin_panic_handler..PanicPayload$u20$as$u20$core..panic..BoxMeUp$GT$8take_box17hf68c26a79265806aE>
 - func[142] sig=5 <_ZN90_$LT$std..panicking..begin_panic_handler..PanicPayload$u20$as$u20$core..panic..BoxMeUp$GT$3get17h2f13d8d04478e036E>
 - func[143] sig=5 <_ZN91_$LT$std..panicking..begin_panic..PanicPayload$LT$A$GT$$u20$as$u20$core..panic..BoxMeUp$GT$8take_box17hb16aceddc760d867E>
 - func[144] sig=5 <_ZN91_$LT$std..panicking..begin_panic..PanicPayload$LT$A$GT$$u20$as$u20$core..panic..BoxMeUp$GT$3get17h1e86d8331d944ed0E>
 - func[145] sig=5 <rust_panic>
 - func[146] sig=9 <_ZN3std2rt19lang_start_internal17hb21784bb01c7c753E>
 - func[147] sig=3 <_ZN62_$LT$std..ffi..c_str..NulError$u20$as$u20$core..fmt..Debug$GT$3fmt17hdbdc592c640fe94eE>
 - func[148] sig=7 <_ZN3std3sys4wasi7process8ExitCode6as_i3217h1909ac59d2547a0aE>
 - func[149] sig=9 <__rust_maybe_catch_panic>
 - func[150] sig=7 <__rust_start_panic>
 - func[151] sig=7 <_ZN4wasi5error5Error9raw_error17ha81beb7b4fa33a3dE>
 - func[152] sig=3 <_ZN4wasi13lib_generated8args_get17ha2cc1da03f4386e9E>
 - func[153] sig=1 <_ZN4wasi13lib_generated14args_sizes_get17h5f7f470ade5347b9E>
 - func[154] sig=4 <_ZN4wasi13lib_generated8fd_write17hcbb26a9193d90ff3E>
 - func[155] sig=10 <_ZN9backtrace5print12BacktraceFmt3new17h3cebab89049ca43eE>
 - func[156] sig=7 <_ZN9backtrace5print12BacktraceFmt11add_context17h1dba2b5dbc8bc178E>
 - func[157] sig=7 <_ZN9backtrace5print12BacktraceFmt6finish17h5861df54136c954dE>
 - func[158] sig=0 <abort>
 - func[159] sig=7 <malloc>
 - func[160] sig=7 <dlmalloc>
 - func[161] sig=1 <free>
 - func[162] sig=1 <dlfree>
 - func[163] sig=3 <calloc>
 - func[164] sig=3 <realloc>
 - func[165] sig=5 <dispose_chunk>
 - func[166] sig=3 <internal_memalign>
 - func[167] sig=3 <aligned_alloc>
 - func[168] sig=1 <_Exit>
 - func[169] sig=0 <__wasilibc_populate_libpreopen>
 - func[170] sig=0 <__wasilibc_populate_environ>
 - func[171] sig=7 <sbrk>
 - func[172] sig=0 <dummy>
 - func[173] sig=0 <__prepare_for_exit>
 - func[174] sig=7 <getenv>
 - func[175] sig=8 <memmove>
 - func[176] sig=7 <strlen>
 - func[177] sig=7 <strerror>
 - func[178] sig=8 <strerror_r>
 - func[179] sig=3 <__strchrnul>
 - func[180] sig=8 <memcpy>
 - func[181] sig=8 <memset>
 - func[182] sig=8 <strncmp>
 - func[183] sig=8 <memcmp>
 - func[184] sig=3 <dummy>
 - func[185] sig=3 <__lctrans>
 - func[186] sig=5 <_ZN5alloc5alloc18handle_alloc_error17h372aacb639e2de27E>
 - func[187] sig=0 <_ZN5alloc7raw_vec17capacity_overflow17h545b4b1a9ba97ff8E>
 - func[188] sig=5 <_ZN5alloc6string13FromUtf8Error10into_bytes17h03cb5aea6ff20b89E>
 - func[189] sig=5 <_ZN5alloc6string104_$LT$impl$u20$core..convert..From$LT$alloc..string..String$GT$$u20$for$u20$alloc..vec..Vec$LT$u8$GT$$GT$4from17h8c28c811a2a829ddE>
 - func[190] sig=1 <_ZN4core3ptr18real_drop_in_place17h38a660153738b32fE>
 - func[191] sig=1 <_ZN4core3ptr18real_drop_in_place17h650094a6a70338f7E>
 - func[192] sig=6 <_ZN4core9panicking18panic_bounds_check17h42ce3eaf53169acbE>
 - func[193] sig=6 <_ZN4core9panicking5panic17hc60400b47c695700E>
 - func[194] sig=5 <_ZN4core5slice20slice_index_len_fail17hfc4485e8c33f2d47E>
 - func[195] sig=5 <_ZN4core5slice22slice_index_order_fail17heebd88c1be3dadefE>
 - func[196] sig=8 <_ZN4core3fmt9Formatter3pad17h2edb8e7d7e605d23E>
 - func[197] sig=4 <_ZN4core3str16slice_error_fail17he3cd070c8cb5f5f5E>
 - func[198] sig=5 <_ZN4core9panicking9panic_fmt17h8eef3a14480998beE>
 - func[199] sig=3 <_ZN4core3fmt3num3imp52_$LT$impl$u20$core..fmt..Display$u20$for$u20$u32$GT$3fmt17h81afefe9a006429dE>
 - func[200] sig=8 <_ZN4core3fmt5write17h8876819fabc0b258E>
 - func[201] sig=3 <_ZN71_$LT$core..ops..range..Range$LT$Idx$GT$$u20$as$u20$core..fmt..Debug$GT$3fmt17hf1b5fd652ff8f28dE>
 - func[202] sig=3 <_ZN4core3fmt3num52_$LT$impl$u20$core..fmt..Debug$u20$for$u20$usize$GT$3fmt17h3b17d39de7fdc1f1E>
 - func[203] sig=2 <_ZN36_$LT$T$u20$as$u20$core..any..Any$GT$7type_id17h47a9f9063b0c3dbcE>
 - func[204] sig=3 <_ZN60_$LT$core..cell..BorrowError$u20$as$u20$core..fmt..Debug$GT$3fmt17hf295ea4ef037c8ddE>
 - func[205] sig=3 <_ZN63_$LT$core..cell..BorrowMutError$u20$as$u20$core..fmt..Debug$GT$3fmt17habbe3fa4e4e9f71eE>
 - func[206] sig=7 <_ZN82_$LT$core..char..EscapeDebug$u20$as$u20$core..iter..traits..iterator..Iterator$GT$4next17h0ef1301de9a0af9aE>
 - func[207] sig=7 <_ZN4core5panic9PanicInfo7message17hb5a2f77065892d6eE>
 - func[208] sig=7 <_ZN4core5panic9PanicInfo8location17h198cc11e8ca65b7cE>
 - func[209] sig=3 <_ZN44_$LT$$RF$T$u20$as$u20$core..fmt..Display$GT$3fmt17h9fac0349c74cb035E>
 - func[210] sig=10 <_ZN4core5panic8Location20internal_constructor17h907b86da1c041b0eE>
 - func[211] sig=5 <_ZN4core5panic8Location4file17h916ad762787e0b09E>
 - func[212] sig=7 <_ZN4core5panic8Location4line17h51d324d36825685fE>
 - func[213] sig=7 <_ZN4core5panic8Location6column17h92ef532fcdc90d17E>
 - func[214] sig=3 <_ZN60_$LT$core..panic..Location$u20$as$u20$core..fmt..Display$GT$3fmt17h907319866752d049E>
 - func[215] sig=12 <_ZN4core3fmt8builders11DebugStruct5field17hbd0e2a659c73823bE>
 - func[216] sig=5 <_ZN4core6option13expect_failed17h48822fc6fce9003fE>
 - func[217] sig=3 <_ZN42_$LT$$RF$T$u20$as$u20$core..fmt..Debug$GT$3fmt17haa94c1a554592613E>
 - func[218] sig=4 <_ZN4core6result13unwrap_failed17h89d8c4399f5be1adE>
 - func[219] sig=1 <_ZN63_$LT$core..ffi..VaListImpl$u20$as$u20$core..ops..drop..Drop$GT$4drop17h33b53169660fa804E>
 - func[220] sig=4 <_ZN4core5slice6memchr6memchr17h244fba075962fc22E>
 - func[221] sig=4 <_ZN4core5slice6memchr7memrchr17h0b3ee6c1c240e3c2E>
 - func[222] sig=0 <_ZN4core5slice25slice_index_overflow_fail17h8a1eef5e63367db8E>
 - func[223] sig=6 <_ZN4core3str5lossy9Utf8Lossy10from_bytes17h7dab23bdc987c3f1E>
 - func[224] sig=6 <_ZN4core3str5lossy9Utf8Lossy6chunks17h678e80bba7d8a004E>
 - func[225] sig=5 <_ZN96_$LT$core..str..lossy..Utf8LossyChunksIter$u20$as$u20$core..iter..traits..iterator..Iterator$GT$4next17h3cc4f6dc97be609eE>
 - func[226] sig=8 <_ZN66_$LT$core..str..lossy..Utf8Lossy$u20$as$u20$core..fmt..Display$GT$3fmt17h01e01d86d9c10b50E>
 - func[227] sig=3 <_ZN4core7unicode9bool_trie8BoolTrie6lookup17h84f73bedeaa3b078E>
 - func[228] sig=7 <_ZN4core7unicode9printable12is_printable17hed06e069218dc178E>
 - func[229] sig=1 <_ZN4core3str6traits101_$LT$impl$u20$core..slice..SliceIndex$LT$str$GT$$u20$for$u20$core..ops..range..Range$LT$usize$GT$$GT$5index28_$u7b$$u7b$closure$u7d$$u7d$17he28276d81535378cE>
 - func[230] sig=3 <_ZN4core3fmt3num52_$LT$impl$u20$core..fmt..LowerHex$u20$for$u20$i8$GT$3fmt17hc0bd685e8a486811E>
 - func[231] sig=6 <_ZN4core3str9from_utf817hc9d846e05f440661E>
 - func[232] sig=6 <_ZN4core3str19run_utf8_validation17h7e6a021aaed33521E>
 - func[233] sig=3 <_ZN4core3fmt3num3imp51_$LT$impl$u20$core..fmt..Display$u20$for$u20$u8$GT$3fmt17h6bbc810392989f25E>
 - func[234] sig=6 <_ZN4core3fmt8builders10DebugInner5entry17h4245dad62c1db899E>
 - func[235] sig=3 <_ZN41_$LT$char$u20$as$u20$core..fmt..Debug$GT$3fmt17h9a3163a3c6013c6cE>
 - func[236] sig=8 <_ZN68_$LT$core..fmt..builders..PadAdapter$u20$as$u20$core..fmt..Write$GT$9write_str17he40b71e6e495ad7cE>
 - func[237] sig=8 <_ZN4core3fmt8builders10DebugTuple5field17hbd38ecaa7052e2cfE>
 - func[238] sig=7 <_ZN4core3fmt8builders10DebugTuple6finish17ha689661cc00c12a4E>
 - func[239] sig=8 <_ZN4core3fmt8builders8DebugSet5entry17hf39c7622bed830d6E>
 - func[240] sig=7 <_ZN4core3fmt8builders9DebugList6finish17h8425cc974c8800a1E>
 - func[241] sig=3 <_ZN4core3fmt5Write10write_char17h0a40abd75ed3683dE>
 - func[242] sig=3 <_ZN4core3fmt5Write9write_fmt17hbfa684fcf67a9237E>
 - func[243] sig=8 <_ZN50_$LT$$RF$mut$u20$W$u20$as$u20$core..fmt..Write$GT$9write_str17h071370f55648a353E>
 - func[244] sig=3 <_ZN50_$LT$$RF$mut$u20$W$u20$as$u20$core..fmt..Write$GT$10write_char17hca1d204488cb89c9E>
 - func[245] sig=3 <_ZN50_$LT$$RF$mut$u20$W$u20$as$u20$core..fmt..Write$GT$9write_fmt17h297d40b2f7ee4bd8E>
 - func[246] sig=3 <_ZN4core3fmt10ArgumentV110show_usize17h659f2e7b81f60987E>
 - func[247] sig=13 <_ZN4core3fmt3num3imp7fmt_u6417h042ebedf17751bd0E>
 - func[248] sig=3 <_ZN59_$LT$core..fmt..Arguments$u20$as$u20$core..fmt..Display$GT$3fmt17h1d4c2ae0c05a3698E>
 - func[249] sig=14 <_ZN4core3fmt9Formatter12pad_integral17hfef5805f826bffbfE>
 - func[250] sig=9 <_ZN4core3fmt9Formatter12pad_integral12write_prefix17h7320e38828a59752E>
 - func[251] sig=8 <_ZN4core3fmt9Formatter9write_str17haa5886101a13330aE>
 - func[252] sig=3 <_ZN4core3fmt9Formatter9write_fmt17h703d37c837f1e686E>
 - func[253] sig=7 <_ZN4core3fmt9Formatter9alternate17haad4b8880f5e5b7bE>
 - func[254] sig=7 <_ZN4core3fmt9Formatter15debug_lower_hex17ha70a7ac18ca965afE>
 - func[255] sig=7 <_ZN4core3fmt9Formatter15debug_upper_hex17h5b80b9b67b737f51E>
 - func[256] sig=4 <_ZN4core3fmt9Formatter11debug_tuple17h537225ecd55cb5d7E>
 - func[257] sig=5 <_ZN4core3fmt9Formatter10debug_list17h3e245a8d65529e2cE>
 - func[258] sig=3 <_ZN57_$LT$core..fmt..Formatter$u20$as$u20$core..fmt..Write$GT$10write_char17hd0c803174082e12eE>
 - func[259] sig=8 <_ZN40_$LT$str$u20$as$u20$core..fmt..Debug$GT$3fmt17h00c99ec58e8a423cE>
 - func[260] sig=8 <_ZN42_$LT$str$u20$as$u20$core..fmt..Display$GT$3fmt17h1f0b63dac53d0aecE>
 - func[261] sig=3 <_ZN4core3fmt3num53_$LT$impl$u20$core..fmt..LowerHex$u20$for$u20$i32$GT$3fmt17h58623d8131b79122E>
 - func[262] sig=15 <_ZN4core7unicode9printable5check17haa15d32184b13ee5E>
 - func[263] sig=7 <_ZN4core7unicode6tables16derived_property15Grapheme_Extend17hae9f1cc446db1bb7E>
 - func[264] sig=3 <_ZN57_$LT$core..str..Utf8Error$u20$as$u20$core..fmt..Debug$GT$3fmt17h58be16dd691a675aE>
 - func[265] sig=3 <_ZN4core3fmt3num52_$LT$impl$u20$core..fmt..UpperHex$u20$for$u20$i8$GT$3fmt17hb07de94750255221E>
 - func[266] sig=3 <_ZN4core3fmt3num53_$LT$impl$u20$core..fmt..UpperHex$u20$for$u20$i32$GT$3fmt17he6067a6f8103a390E>
 - func[267] sig=3 <_ZN4core3fmt3num3imp52_$LT$impl$u20$core..fmt..Display$u20$for$u20$i32$GT$3fmt17ha3fe23ff267fac81E>
 - func[268] sig=3 <_ZN42_$LT$$RF$T$u20$as$u20$core..fmt..Debug$GT$3fmt17h43093690dcf30e1dE>
 - func[269] sig=3 <_ZN42_$LT$$RF$T$u20$as$u20$core..fmt..Debug$GT$3fmt17h9bfacaf2c5539e85E>
 - func[270] sig=3 <_ZN42_$LT$$RF$T$u20$as$u20$core..fmt..Debug$GT$3fmt17ha8d8323b2b975936E>
Table[1]:
 - table[0] type=funcref initial=102 max=102
Memory[1]:
 - memory[0] pages: initial=17
Global[3]:
 - global[0] i32 mutable=1 - init i32=1048576
 - global[1] i32 mutable=0 <__data_end> - init i32=1061140
 - global[2] i32 mutable=0 <__heap_base> - init i32=1061140
Export[6]:
 - memory[0] -> "memory"
 - global[1] -> "__data_end"
 - global[2] -> "__heap_base"
 - func[9] <_start> -> "_start"
 - func[18] <__original_main> -> "__original_main"
 - func[19] <main> -> "main"
Elem[1]:
 - segment[0] table=0 count=101 - init i32=1
  - elem[1] = func[12] <_ZN4core3ptr18real_drop_in_place17h5b9eb712c953141eE>
  - elem[2] = func[10] <_ZN3std2rt10lang_start28_$u7b$$u7b$closure$u7d$$u7d$17hcf0a53e73a737b14E>
  - elem[3] = func[11] <_ZN4core3ops8function6FnOnce40call_once$u7b$$u7b$vtable.shim$u7d$$u7d$17h7181aab030b356c7E>
  - elem[4] = func[199] <_ZN4core3fmt3num3imp52_$LT$impl$u20$core..fmt..Display$u20$for$u20$u32$GT$3fmt17h81afefe9a006429dE>
  - elem[5] = func[23] <_ZN52_$LT$$BP$const$u20$T$u20$as$u20$core..fmt..Debug$GT$3fmt17h36ad9990371e35ecE>
  - elem[6] = func[22] <_ZN44_$LT$$RF$T$u20$as$u20$core..fmt..Display$GT$3fmt17hcb50ccd46cfffa86E>
  - elem[7] = func[24] <_ZN52_$LT$$BP$const$u20$T$u20$as$u20$core..fmt..Debug$GT$3fmt17h9743d9e05b4bdf6eE>
  - elem[8] = func[14] <_ZN4core3fmt3num52_$LT$impl$u20$core..fmt..Debug$u20$for$u20$isize$GT$3fmt17hf4e921414d427e32E>
  - elem[9] = func[17] <_ZN4main4main17h9e0ea2b04575dfdbE>
  - elem[10] = func[248] <_ZN59_$LT$core..fmt..Arguments$u20$as$u20$core..fmt..Display$GT$3fmt17h1d4c2ae0c05a3698E>
  - elem[11] = func[21] <_ZN42_$LT$$RF$T$u20$as$u20$core..fmt..Debug$GT$3fmt17h97a4b0741912e1acE>
  - elem[12] = func[37] <_ZN45_$LT$$RF$T$u20$as$u20$core..fmt..UpperHex$GT$3fmt17h56eb96d5732f91c6E>
  - elem[13] = func[33] <_ZN42_$LT$$RF$T$u20$as$u20$core..fmt..Debug$GT$3fmt17h9153e35d1f393cc8E>
  - elem[14] = func[88] <_ZN60_$LT$std..io..error..Error$u20$as$u20$core..fmt..Display$GT$3fmt17hab33489ae32428e1E>
  - elem[15] = func[89] <_ZN55_$LT$std..path..Display$u20$as$u20$core..fmt..Debug$GT$3fmt17h0986e0b7a0364423E>
  - elem[16] = func[267] <_ZN4core3fmt3num3imp52_$LT$impl$u20$core..fmt..Display$u20$for$u20$i32$GT$3fmt17ha3fe23ff267fac81E>
  - elem[17] = func[75] <_ZN60_$LT$alloc..string..String$u20$as$u20$core..fmt..Display$GT$3fmt17h8bf31a0875beb2d8E>
  - elem[18] = func[36] <_ZN44_$LT$$RF$T$u20$as$u20$core..fmt..Display$GT$3fmt17hcec0264094fa939fE>
  - elem[19] = func[132] <_ZN3std5alloc24default_alloc_error_hook17h42d9c6ae543c8dd7E>
  - elem[20] = func[35] <_ZN44_$LT$$RF$T$u20$as$u20$core..fmt..Display$GT$3fmt17hcd40a1afa9d9ce57E>
  - elem[21] = func[124] <_ZN91_$LT$std..sys_common..backtrace.._print..DisplayBacktrace$u20$as$u20$core..fmt..Display$GT$3fmt17hc9f54135ac839bf3E>
  - elem[22] = func[138] <_ZN3std9panicking3try7do_call17hba2245c23b34bfc8E>
  - elem[23] = func[129] <_ZN76_$LT$std..sys_common..thread_local..Key$u20$as$u20$core..ops..drop..Drop$GT$4drop17h1c8ff39e518cfb04E>
  - elem[24] = func[71] <_ZN50_$LT$$RF$mut$u20$W$u20$as$u20$core..fmt..Write$GT$9write_str17h7b56425ef82031b0E>
  - elem[25] = func[62] <_ZN50_$LT$$RF$mut$u20$W$u20$as$u20$core..fmt..Write$GT$10write_char17h3ae93dd1c0eae2d8E>
  - elem[26] = func[66] <_ZN50_$LT$$RF$mut$u20$W$u20$as$u20$core..fmt..Write$GT$9write_fmt17h84d4595f10c6e9bdE>
  - elem[27] = func[70] <_ZN50_$LT$$RF$mut$u20$W$u20$as$u20$core..fmt..Write$GT$9write_str17h7543301949989357E>
  - elem[28] = func[64] <_ZN50_$LT$$RF$mut$u20$W$u20$as$u20$core..fmt..Write$GT$10write_char17h56a1257173aa70e6E>
  - elem[29] = func[68] <_ZN50_$LT$$RF$mut$u20$W$u20$as$u20$core..fmt..Write$GT$9write_fmt17hf2a77fb1f44d03b9E>
  - elem[30] = func[69] <_ZN50_$LT$$RF$mut$u20$W$u20$as$u20$core..fmt..Write$GT$9write_str17h343be05a3736b678E>
  - elem[31] = func[63] <_ZN50_$LT$$RF$mut$u20$W$u20$as$u20$core..fmt..Write$GT$10write_char17h52ab12c1a9a7ed26E>
  - elem[32] = func[67] <_ZN50_$LT$$RF$mut$u20$W$u20$as$u20$core..fmt..Write$GT$9write_fmt17he9274de8420ffd84E>
  - elem[33] = func[32] <_ZN42_$LT$$RF$T$u20$as$u20$core..fmt..Debug$GT$3fmt17h33e9d5b249d20379E>
  - elem[34] = func[51] <_ZN4core3ptr18real_drop_in_place17h002503b23174cca1E>
  - elem[35] = func[28] <_ZN36_$LT$T$u20$as$u20$core..any..Any$GT$7type_id17h0f8d2bd32519b0bcE>
  - elem[36] = func[205] <_ZN63_$LT$core..cell..BorrowMutError$u20$as$u20$core..fmt..Debug$GT$3fmt17habbe3fa4e4e9f71eE>
  - elem[37] = func[204] <_ZN60_$LT$core..cell..BorrowError$u20$as$u20$core..fmt..Debug$GT$3fmt17hf295ea4ef037c8ddE>
  - elem[38] = func[57] <_ZN4core3ptr18real_drop_in_place17ha7c2802620da5d36E>
  - elem[39] = func[147] <_ZN62_$LT$std..ffi..c_str..NulError$u20$as$u20$core..fmt..Debug$GT$3fmt17hdbdc592c640fe94eE>
  - elem[40] = func[52] <_ZN4core3ptr18real_drop_in_place17h1008d021a780f350E>
  - elem[41] = func[118] <_ZN55_$LT$std..path..PathBuf$u20$as$u20$core..fmt..Debug$GT$3fmt17haf00f8624de4aae8E>
  - elem[42] = func[54] <_ZN4core3ptr18real_drop_in_place17h1a273616ec4b5ac9E>
  - elem[43] = func[264] <_ZN57_$LT$core..str..Utf8Error$u20$as$u20$core..fmt..Debug$GT$3fmt17h58be16dd691a675aE>
  - elem[44] = func[55] <_ZN4core3ptr18real_drop_in_place17h2b3b83b2a1406e9dE>
  - elem[45] = func[128] <_ZN82_$LT$std..sys_common..poison..PoisonError$LT$T$GT$$u20$as$u20$core..fmt..Debug$GT$3fmt17h492372f491e0be27E>
  - elem[46] = func[96] <_ZN243_$LT$std..error..$LT$impl$u20$core..convert..From$LT$alloc..string..String$GT$$u20$for$u20$alloc..boxed..Box$LT$dyn$u20$std..error..Error$u2b$core..marker..Send$u2b$core..marker..Sync$GT$$GT$..from..StringError$u20$as$u20$std..error..Error$GT$11description17h0caa1b2504394f01E>
  - elem[47] = func[93] <_ZN3std5error5Error5cause17h208489695af0fdeeE>
  - elem[48] = func[94] <_ZN3std5error5Error7type_id17he93b19cfb2e8e2acE>
  - elem[49] = func[95] <_ZN3std5error5Error9backtrace17h1368d825fc8df78cE>
  - elem[50] = func[97] <_ZN244_$LT$std..error..$LT$impl$u20$core..convert..From$LT$alloc..string..String$GT$$u20$for$u20$alloc..boxed..Box$LT$dyn$u20$std..error..Error$u2b$core..marker..Send$u2b$core..marker..Sync$GT$$GT$..from..StringError$u20$as$u20$core..fmt..Display$GT$3fmt17h4896a95c62927851E>
  - elem[51] = func[98] <_ZN242_$LT$std..error..$LT$impl$u20$core..convert..From$LT$alloc..string..String$GT$$u20$for$u20$alloc..boxed..Box$LT$dyn$u20$std..error..Error$u2b$core..marker..Send$u2b$core..marker..Sync$GT$$GT$..from..StringError$u20$as$u20$core..fmt..Debug$GT$3fmt17hf375d57eb464f65fE>
  - elem[52] = func[56] <_ZN4core3ptr18real_drop_in_place17h3e8a74f436f6b428E>
  - elem[53] = func[117] <_ZN80_$LT$std..io..Write..write_fmt..Adaptor$LT$T$GT$$u20$as$u20$core..fmt..Write$GT$9write_str17h4e79fe03d48f26f2E>
  - elem[54] = func[38] <_ZN4core3fmt5Write10write_char17h60efdbdfd77cd04aE>
  - elem[55] = func[43] <_ZN4core3fmt5Write9write_fmt17h9ac7a778133567cdE>
  - elem[56] = func[116] <_ZN80_$LT$std..io..Write..write_fmt..Adaptor$LT$T$GT$$u20$as$u20$core..fmt..Write$GT$9write_str17h1bf561aa9168750dE>
  - elem[57] = func[40] <_ZN4core3fmt5Write10write_char17hc15d9e049e32c338E>
  - elem[58] = func[42] <_ZN4core3fmt5Write9write_fmt17h2438519d8d7db450E>
  - elem[59] = func[46] <_ZN3std4sync4once4Once9call_once28_$u7b$$u7b$closure$u7d$$u7d$17hca3f28696bfe6018E>
  - elem[60] = func[45] <_ZN4core3ops8function6FnOnce40call_once$u7b$$u7b$vtable.shim$u7d$$u7d$17h5217946a25668fdeE>
  - elem[61] = func[58] <_ZN4core3ptr18real_drop_in_place17hd65976e8626b1b88E>
  - elem[62] = func[125] <_ZN3std10sys_common9backtrace10_print_fmt28_$u7b$$u7b$closure$u7d$$u7d$17hfde964fa31647e6bE>
  - elem[63] = func[48] <_ZN4core3ops8function6FnOnce40call_once$u7b$$u7b$vtable.shim$u7d$$u7d$17h9eb7082a48580bd9E>
  - elem[64] = func[49] <_ZN4core3ops8function6FnOnce40call_once$u7b$$u7b$vtable.shim$u7d$$u7d$17hab3cb5efd3f8166fE>
  - elem[65] = func[108] <_ZN60_$LT$std..io..stdio..StderrRaw$u20$as$u20$std..io..Write$GT$5write17h4e43e82542fc3b2fE>
  - elem[66] = func[114] <_ZN3std2io5Write14write_vectored17h353d72a3a24ef542E>
  - elem[67] = func[119] <_ZN59_$LT$std..process..ChildStdin$u20$as$u20$std..io..Write$GT$5flush17h09bba869abdaa1d8E>
  - elem[68] = func[41] <_ZN3std2io5Write9write_all17h4c673540e22a7825E>
  - elem[69] = func[115] <_ZN3std2io5Write9write_fmt17he4f9e0467028fa4dE>
  - elem[70] = func[59] <_ZN4core3ptr18real_drop_in_place17hffd50c820102285cE>
  - elem[71] = func[103] <_ZN3std2io5impls71_$LT$impl$u20$std..io..Write$u20$for$u20$alloc..boxed..Box$LT$W$GT$$GT$5write17h1c9ea699209651c9E>
  - elem[72] = func[104] <_ZN3std2io5impls71_$LT$impl$u20$std..io..Write$u20$for$u20$alloc..boxed..Box$LT$W$GT$$GT$14write_vectored17h1600ea5da08cdc03E>
  - elem[73] = func[105] <_ZN3std2io5impls71_$LT$impl$u20$std..io..Write$u20$for$u20$alloc..boxed..Box$LT$W$GT$$GT$5flush17hee9bf9fcdcb912feE>
  - elem[74] = func[106] <_ZN3std2io5impls71_$LT$impl$u20$std..io..Write$u20$for$u20$alloc..boxed..Box$LT$W$GT$$GT$9write_all17h90beacfdfa1f3b4dE>
  - elem[75] = func[107] <_ZN3std2io5impls71_$LT$impl$u20$std..io..Write$u20$for$u20$alloc..boxed..Box$LT$W$GT$$GT$9write_fmt17h0f033bf5e9e3c25bE>
  - elem[76] = func[53] <_ZN4core3ptr18real_drop_in_place17h14c964a2795c8756E>
  - elem[77] = func[141] <_ZN90_$LT$std..panicking..begin_panic_handler..PanicPayload$u20$as$u20$core..panic..BoxMeUp$GT$8take_box17hf68c26a79265806aE>
  - elem[78] = func[142] <_ZN90_$LT$std..panicking..begin_panic_handler..PanicPayload$u20$as$u20$core..panic..BoxMeUp$GT$3get17h2f13d8d04478e036E>
  - elem[79] = func[30] <_ZN36_$LT$T$u20$as$u20$core..any..Any$GT$7type_id17h5d6a88253efd5b28E>
  - elem[80] = func[143] <_ZN91_$LT$std..panicking..begin_panic..PanicPayload$LT$A$GT$$u20$as$u20$core..panic..BoxMeUp$GT$8take_box17hb16aceddc760d867E>
  - elem[81] = func[144] <_ZN91_$LT$std..panicking..begin_panic..PanicPayload$LT$A$GT$$u20$as$u20$core..panic..BoxMeUp$GT$3get17h1e86d8331d944ed0E>
  - elem[82] = func[29] <_ZN36_$LT$T$u20$as$u20$core..any..Any$GT$7type_id17h168fc26cbdda1442E>
  - elem[83] = func[34] <_ZN42_$LT$$RF$T$u20$as$u20$core..fmt..Debug$GT$3fmt17hf6db0e1716810508E>
  - elem[84] = func[209] <_ZN44_$LT$$RF$T$u20$as$u20$core..fmt..Display$GT$3fmt17h9fac0349c74cb035E>
  - elem[85] = func[201] <_ZN71_$LT$core..ops..range..Range$LT$Idx$GT$$u20$as$u20$core..fmt..Debug$GT$3fmt17hf1b5fd652ff8f28dE>
  - elem[86] = func[235] <_ZN41_$LT$char$u20$as$u20$core..fmt..Debug$GT$3fmt17h9a3163a3c6013c6cE>
  - elem[87] = func[246] <_ZN4core3fmt10ArgumentV110show_usize17h659f2e7b81f60987E>
  - elem[88] = func[217] <_ZN42_$LT$$RF$T$u20$as$u20$core..fmt..Debug$GT$3fmt17haa94c1a554592613E>
  - elem[89] = func[190] <_ZN4core3ptr18real_drop_in_place17h38a660153738b32fE>
  - elem[90] = func[203] <_ZN36_$LT$T$u20$as$u20$core..any..Any$GT$7type_id17h47a9f9063b0c3dbcE>
  - elem[91] = func[191] <_ZN4core3ptr18real_drop_in_place17h650094a6a70338f7E>
  - elem[92] = func[236] <_ZN68_$LT$core..fmt..builders..PadAdapter$u20$as$u20$core..fmt..Write$GT$9write_str17he40b71e6e495ad7cE>
  - elem[93] = func[241] <_ZN4core3fmt5Write10write_char17h0a40abd75ed3683dE>
  - elem[94] = func[242] <_ZN4core3fmt5Write9write_fmt17hbfa684fcf67a9237E>
  - elem[95] = func[219] <_ZN63_$LT$core..ffi..VaListImpl$u20$as$u20$core..ops..drop..Drop$GT$4drop17h33b53169660fa804E>
  - elem[96] = func[268] <_ZN42_$LT$$RF$T$u20$as$u20$core..fmt..Debug$GT$3fmt17h43093690dcf30e1dE>
  - elem[97] = func[243] <_ZN50_$LT$$RF$mut$u20$W$u20$as$u20$core..fmt..Write$GT$9write_str17h071370f55648a353E>
  - elem[98] = func[244] <_ZN50_$LT$$RF$mut$u20$W$u20$as$u20$core..fmt..Write$GT$10write_char17hca1d204488cb89c9E>
  - elem[99] = func[245] <_ZN50_$LT$$RF$mut$u20$W$u20$as$u20$core..fmt..Write$GT$9write_fmt17h297d40b2f7ee4bd8E>
  - elem[100] = func[269] <_ZN42_$LT$$RF$T$u20$as$u20$core..fmt..Debug$GT$3fmt17h9bfacaf2c5539e85E>
  - elem[101] = func[270] <_ZN42_$LT$$RF$T$u20$as$u20$core..fmt..Debug$GT$3fmt17ha8d8323b2b975936E>
Code[263]:
 - func[8] size=8 <__wasm_call_ctors>
 - func[9] size=41 <_start>
 - func[10] size=66 <_ZN3std2rt10lang_start28_$u7b$$u7b$closure$u7d$$u7d$17hcf0a53e73a737b14E>
 - func[11] size=66 <_ZN4core3ops8function6FnOnce40call_once$u7b$$u7b$vtable.shim$u7d$$u7d$17h7181aab030b356c7E>
 - func[12] size=2 <_ZN4core3ptr18real_drop_in_place17h5b9eb712c953141eE>
 - func[13] size=143 <_ZN5alloc7raw_vec19RawVec$LT$T$C$A$GT$7reserve17ha2198ae13467cc95E>
 - func[14] size=60 <_ZN4core3fmt3num52_$LT$impl$u20$core..fmt..Debug$u20$for$u20$isize$GT$3fmt17hf4e921414d427e32E>
 - func[15] size=874 <_ZN4main4leaf17he80d23a2a9f2228bE>
 - func[16] size=293 <_ZN4main12intermediate17h1a902bac6af2874cE>
 - func[17] size=302 <_ZN4main4main17h9e0ea2b04575dfdbE>
 - func[18] size=68 <__original_main>
 - func[19] size=8 <main>
 - func[20] size=251 <_ZN4core5slice29_$LT$impl$u20$$u5b$T$u5d$$GT$15copy_from_slice17h9c08b7267d289810E>
 - func[21] size=67 <_ZN42_$LT$$RF$T$u20$as$u20$core..fmt..Debug$GT$3fmt17h97a4b0741912e1acE>
 - func[22] size=20 <_ZN44_$LT$$RF$T$u20$as$u20$core..fmt..Display$GT$3fmt17hcb50ccd46cfffa86E>
 - func[23] size=173 <_ZN52_$LT$$BP$const$u20$T$u20$as$u20$core..fmt..Debug$GT$3fmt17h36ad9990371e35ecE>
 - func[24] size=173 <_ZN52_$LT$$BP$const$u20$T$u20$as$u20$core..fmt..Debug$GT$3fmt17h9743d9e05b4bdf6eE>
 - func[25] size=19 <__rust_alloc>
 - func[26] size=15 <__rust_dealloc>
 - func[27] size=23 <__rust_realloc>
 - func[28] size=13 <_ZN36_$LT$T$u20$as$u20$core..any..Any$GT$7type_id17h0f8d2bd32519b0bcE>
 - func[29] size=12 <_ZN36_$LT$T$u20$as$u20$core..any..Any$GT$7type_id17h168fc26cbdda1442E>
 - func[30] size=12 <_ZN36_$LT$T$u20$as$u20$core..any..Any$GT$7type_id17h5d6a88253efd5b28E>
 - func[31] size=979 <_ZN73_$LT$std..sys_common..os_str_bytes..Slice$u20$as$u20$core..fmt..Debug$GT$3fmt17h4065989a45dde40cE>
 - func[32] size=67 <_ZN42_$LT$$RF$T$u20$as$u20$core..fmt..Debug$GT$3fmt17h33e9d5b249d20379E>
 - func[33] size=67 <_ZN42_$LT$$RF$T$u20$as$u20$core..fmt..Debug$GT$3fmt17h9153e35d1f393cc8E>
 - func[34] size=127 <_ZN42_$LT$$RF$T$u20$as$u20$core..fmt..Debug$GT$3fmt17hf6db0e1716810508E>
 - func[35] size=15 <_ZN44_$LT$$RF$T$u20$as$u20$core..fmt..Display$GT$3fmt17hcd40a1afa9d9ce57E>
 - func[36] size=20 <_ZN44_$LT$$RF$T$u20$as$u20$core..fmt..Display$GT$3fmt17hcec0264094fa939fE>
 - func[37] size=15 <_ZN45_$LT$$RF$T$u20$as$u20$core..fmt..UpperHex$GT$3fmt17h56eb96d5732f91c6E>
 - func[38] size=409 <_ZN4core3fmt5Write10write_char17h60efdbdfd77cd04aE>
 - func[39] size=617 <_ZN3std2io5Write9write_all17h2b497641c383c1c2E>
 - func[40] size=409 <_ZN4core3fmt5Write10write_char17hc15d9e049e32c338E>
 - func[41] size=465 <_ZN3std2io5Write9write_all17h4c673540e22a7825E>
 - func[42] size=113 <_ZN4core3fmt5Write9write_fmt17h2438519d8d7db450E>
 - func[43] size=113 <_ZN4core3fmt5Write9write_fmt17h9ac7a778133567cdE>
 - func[44] size=1062 <_ZN3std9panicking12default_hook17had55ad0811906711E>
 - func[45] size=55 <_ZN4core3ops8function6FnOnce40call_once$u7b$$u7b$vtable.shim$u7d$$u7d$17h5217946a25668fdeE>
 - func[46] size=411 <_ZN3std4sync4once4Once9call_once28_$u7b$$u7b$closure$u7d$$u7d$17hca3f28696bfe6018E>
 - func[47] size=57 <_ZN3std9panicking11begin_panic17h4c37f88b45d6339dE>
 - func[48] size=200 <_ZN4core3ops8function6FnOnce40call_once$u7b$$u7b$vtable.shim$u7d$$u7d$17h9eb7082a48580bd9E>
 - func[49] size=112 <_ZN4core3ops8function6FnOnce40call_once$u7b$$u7b$vtable.shim$u7d$$u7d$17hab3cb5efd3f8166fE>
 - func[50] size=249 <_ZN5alloc4sync12Arc$LT$T$GT$9drop_slow17h75d572a3085302edE>
 - func[51] size=2 <_ZN4core3ptr18real_drop_in_place17h002503b23174cca1E>
 - func[52] size=32 <_ZN4core3ptr18real_drop_in_place17h1008d021a780f350E>
 - func[53] size=42 <_ZN4core3ptr18real_drop_in_place17h14c964a2795c8756E>
 - func[54] size=2 <_ZN4core3ptr18real_drop_in_place17h1a273616ec4b5ac9E>
 - func[55] size=77 <_ZN4core3ptr18real_drop_in_place17h2b3b83b2a1406e9dE>
 - func[56] size=103 <_ZN4core3ptr18real_drop_in_place17h3e8a74f436f6b428E>
 - func[57] size=35 <_ZN4core3ptr18real_drop_in_place17ha7c2802620da5d36E>
 - func[58] size=39 <_ZN4core3ptr18real_drop_in_place17hd65976e8626b1b88E>
 - func[59] size=60 <_ZN4core3ptr18real_drop_in_place17hffd50c820102285cE>
 - func[60] size=32 <_ZN4core6option15Option$LT$T$GT$6unwrap17h3f1ff6c63ca75a16E>
 - func[61] size=32 <_ZN4core6option15Option$LT$T$GT$6unwrap17hbe87f8a73e0525b2E>
 - func[62] size=15 <_ZN50_$LT$$RF$mut$u20$W$u20$as$u20$core..fmt..Write$GT$10write_char17h3ae93dd1c0eae2d8E>
 - func[63] size=15 <_ZN50_$LT$$RF$mut$u20$W$u20$as$u20$core..fmt..Write$GT$10write_char17h52ab12c1a9a7ed26E>
 - func[64] size=355 <_ZN50_$LT$$RF$mut$u20$W$u20$as$u20$core..fmt..Write$GT$10write_char17h56a1257173aa70e6E>
 - func[65] size=148 <_ZN5alloc3vec12Vec$LT$T$GT$7reserve17hb25b281955882348E>
 - func[66] size=116 <_ZN50_$LT$$RF$mut$u20$W$u20$as$u20$core..fmt..Write$GT$9write_fmt17h84d4595f10c6e9bdE>
 - func[67] size=116 <_ZN50_$LT$$RF$mut$u20$W$u20$as$u20$core..fmt..Write$GT$9write_fmt17he9274de8420ffd84E>
 - func[68] size=116 <_ZN50_$LT$$RF$mut$u20$W$u20$as$u20$core..fmt..Write$GT$9write_fmt17hf2a77fb1f44d03b9E>
 - func[69] size=197 <_ZN50_$LT$$RF$mut$u20$W$u20$as$u20$core..fmt..Write$GT$9write_str17h343be05a3736b678E>
 - func[70] size=55 <_ZN50_$LT$$RF$mut$u20$W$u20$as$u20$core..fmt..Write$GT$9write_str17h7543301949989357E>
 - func[71] size=197 <_ZN50_$LT$$RF$mut$u20$W$u20$as$u20$core..fmt..Write$GT$9write_str17h7b56425ef82031b0E>
 - func[72] size=123 <_ZN5alloc4sync12Arc$LT$T$GT$9drop_slow17hd1e1a2ec6dd20ab9E>
 - func[73] size=665 <_ZN3std2io8buffered18BufWriter$LT$W$GT$9flush_buf17h1e803465f6444bc3E>
 - func[74] size=9 <_ZN5alloc7raw_vec19RawVec$LT$T$C$A$GT$11allocate_in28_$u7b$$u7b$closure$u7d$$u7d$17h31c8dbb160d31216E>
 - func[75] size=20 <_ZN60_$LT$alloc..string..String$u20$as$u20$core..fmt..Display$GT$3fmt17h8bf31a0875beb2d8E>
 - func[76] size=93 <_ZN83_$LT$alloc..boxed..Box$LT$F$GT$$u20$as$u20$core..ops..function..FnOnce$LT$A$GT$$GT$9call_once17h471dcd76e3cc0616E>
 - func[77] size=309 <_ZN3std10sys_common11thread_info10ThreadInfo4with28_$u7b$$u7b$closure$u7d$$u7d$17he4fbfdba5ffe7524E>
 - func[78] size=716 <_ZN3std6thread4park17hfc506fb04ca50a64E>
 - func[79] size=57 <_ZN3std4sync7condvar7Condvar6verify17he54d47cc2b03c159E>
 - func[80] size=15 <_ZN3std10sys_common7condvar7Condvar4wait17h4a05f079cb079294E>
 - func[81] size=93 <_ZN3std9panicking15begin_panic_fmt17h6ebfed9e714cf511E>
 - func[82] size=506 <_ZN3std6thread6Thread3new17h6e1b1f283a53e9ccE>
 - func[83] size=321 <_ZN3std3ffi5c_str7CString18from_vec_unchecked17h5e469fd28170e461E>
 - func[84] size=278 <_ZN3std6thread6Thread6unpark17h94e6706e18930922E>
 - func[85] size=620 <_ZN3std3env7_var_os17h654abe0d5110b1baE>
 - func[86] size=293 <_ZN3std3sys4wasi11unsupported17h2c418a7ed20a0567E>
 - func[87] size=352 <_ZN3std3ffi5c_str104_$LT$impl$u20$core..convert..From$LT$std..ffi..c_str..NulError$GT$$u20$for$u20$std..io..error..Error$GT$4from17h68453f96202dc28eE>
 - func[88] size=661 <_ZN60_$LT$std..io..error..Error$u20$as$u20$core..fmt..Display$GT$3fmt17hab33489ae32428e1E>
 - func[89] size=20 <_ZN55_$LT$std..path..Display$u20$as$u20$core..fmt..Debug$GT$3fmt17h0986e0b7a0364423E>
 - func[90] size=10 <_ZN3std3env4args17h5d6872dcdc60322aE>
 - func[91] size=821 <_ZN3std3env7args_os17hd970d5551c7eb2e0E>
 - func[92] size=246 <_ZN73_$LT$std..env..Args$u20$as$u20$core..iter..traits..iterator..Iterator$GT$4next17h130ad00728ed1b35E>
 - func[93] size=9 <_ZN3std5error5Error5cause17h208489695af0fdeeE>
 - func[94] size=12 <_ZN3std5error5Error7type_id17he93b19cfb2e8e2acE>
 - func[95] size=4 <_ZN3std5error5Error9backtrace17h1368d825fc8df78cE>
 - func[96] size=22 <_ZN243_$LT$std..error..$LT$impl$u20$core..convert..From$LT$alloc..string..String$GT$$u20$for$u20$alloc..boxed..Box$LT$dyn$u20$std..error..Error$u2b$core..marker..Send$u2b$core..marker..Sync$GT$$GT$..from..StringError$u20$as$u20$std..error..Error$GT$11description17h0caa1b2504394f01E>
 - func[97] size=20 <_ZN244_$LT$std..error..$LT$impl$u20$core..convert..From$LT$alloc..string..String$GT$$u20$for$u20$alloc..boxed..Box$LT$dyn$u20$std..error..Error$u2b$core..marker..Send$u2b$core..marker..Sync$GT$$GT$..from..StringError$u20$as$u20$core..fmt..Display$GT$3fmt17h4896a95c62927851E>
 - func[98] size=20 <_ZN242_$LT$std..error..$LT$impl$u20$core..convert..From$LT$alloc..string..String$GT$$u20$for$u20$alloc..boxed..Box$LT$dyn$u20$std..error..Error$u2b$core..marker..Send$u2b$core..marker..Sync$GT$$GT$..from..StringError$u20$as$u20$core..fmt..Debug$GT$3fmt17hf375d57eb464f65fE>
 - func[99] size=202 <_ZN3std3sys4wasi17decode_error_kind17haa3a99fbe8bf835fE>
 - func[100] size=488 <_ZN72_$LT$std..io..buffered..BufWriter$LT$W$GT$$u20$as$u20$std..io..Write$GT$5write17h1cf6435e8f0d6314E>
 - func[101] size=917 <_ZN73_$LT$std..io..buffered..LineWriter$LT$W$GT$$u20$as$u20$std..io..Write$GT$5write17h88167627bef1f5b5E>
 - func[102] size=359 <_ZN3std3sys4wasi2os12error_string17h4a5d1b4d37616116E>
 - func[103] size=28 <_ZN3std2io5impls71_$LT$impl$u20$std..io..Write$u20$for$u20$alloc..boxed..Box$LT$W$GT$$GT$5write17h1c9ea699209651c9E>
 - func[104] size=28 <_ZN3std2io5impls71_$LT$impl$u20$std..io..Write$u20$for$u20$alloc..boxed..Box$LT$W$GT$$GT$14write_vectored17h1600ea5da08cdc03E>
 - func[105] size=24 <_ZN3std2io5impls71_$LT$impl$u20$std..io..Write$u20$for$u20$alloc..boxed..Box$LT$W$GT$$GT$5flush17hee9bf9fcdcb912feE>
 - func[106] size=28 <_ZN3std2io5impls71_$LT$impl$u20$std..io..Write$u20$for$u20$alloc..boxed..Box$LT$W$GT$$GT$9write_all17h90beacfdfa1f3b4dE>
 - func[107] size=115 <_ZN3std2io5impls71_$LT$impl$u20$std..io..Write$u20$for$u20$alloc..boxed..Box$LT$W$GT$$GT$9write_fmt17h0f033bf5e9e3c25bE>
 - func[108] size=144 <_ZN60_$LT$std..io..stdio..StderrRaw$u20$as$u20$std..io..Write$GT$5write17h4e43e82542fc3b2fE>
 - func[109] size=441 <_ZN3std10sys_common11at_exit_imp4push17h19d98699c9c6e025E>
 - func[110] size=517 <_ZN3std2io5stdio6stdout17h80e5048511b22f87E>
 - func[111] size=612 <_ZN57_$LT$std..io..stdio..Stdout$u20$as$u20$std..io..Write$GT$9write_fmt17h77bee4200809680fE>
 - func[112] size=304 <_ZN3std2io5stdio9set_panic17h667ab54a2f5594a1E>
 - func[113] size=865 <_ZN3std2io5stdio6_print17hd34db9e38b7e5054E>
 - func[114] size=221 <_ZN3std2io5Write14write_vectored17h353d72a3a24ef542E>
 - func[115] size=465 <_ZN3std2io5Write9write_fmt17he4f9e0467028fa4dE>
 - func[116] size=192 <_ZN80_$LT$std..io..Write..write_fmt..Adaptor$LT$T$GT$$u20$as$u20$core..fmt..Write$GT$9write_str17h1bf561aa9168750dE>
 - func[117] size=192 <_ZN80_$LT$std..io..Write..write_fmt..Adaptor$LT$T$GT$$u20$as$u20$core..fmt..Write$GT$9write_str17h4e79fe03d48f26f2E>
 - func[118] size=20 <_ZN55_$LT$std..path..PathBuf$u20$as$u20$core..fmt..Debug$GT$3fmt17haf00f8624de4aae8E>
 - func[119] size=9 <_ZN59_$LT$std..process..ChildStdin$u20$as$u20$std..io..Write$GT$5flush17h09bba869abdaa1d8E>
 - func[120] size=9 <_ZN3std7process5abort17hb8a2b6667846dd65E>
 - func[121] size=9 <_ZN3std3sys4wasi14abort_internal17he4f0a6618c91d182E>
 - func[122] size=474 <_ZN3std4sync4once4Once10call_inner17h9ff98aa059748033E>
 - func[123] size=341 <_ZN70_$LT$std..sync..once..WaiterQueue$u20$as$u20$core..ops..drop..Drop$GT$4drop17h520a864168252b15E>
 - func[124] size=391 <_ZN91_$LT$std..sys_common..backtrace.._print..DisplayBacktrace$u20$as$u20$core..fmt..Display$GT$3fmt17hc9f54135ac839bf3E>
 - func[125] size=165 <_ZN3std10sys_common9backtrace10_print_fmt28_$u7b$$u7b$closure$u7d$$u7d$17hfde964fa31647e6bE>
 - func[126] size=16 <_ZN3std10sys_common9backtrace28__rust_begin_short_backtrace17h9a086315f308a9f7E>
 - func[127] size=23 <_ZN3std3sys4wasi7condvar7Condvar4wait17ha1fd694d92639d58E>
 - func[128] size=18 <_ZN82_$LT$std..sys_common..poison..PoisonError$LT$T$GT$$u20$as$u20$core..fmt..Debug$GT$3fmt17h492372f491e0be27E>
 - func[129] size=2 <_ZN76_$LT$std..sys_common..thread_local..Key$u20$as$u20$core..ops..drop..Drop$GT$4drop17h1c8ff39e518cfb04E>
 - func[130] size=194 <_ZN3std10sys_common4util10dumb_print17h3a1fcafb52022fe9E>
 - func[131] size=92 <_ZN3std10sys_common4util5abort17h66713edd5181f7feE>
 - func[132] size=214 <_ZN3std5alloc24default_alloc_error_hook17h42d9c6ae543c8dd7E>
 - func[133] size=42 <rust_oom>
 - func[134] size=38 <__rdl_alloc>
 - func[135] size=10 <__rdl_dealloc>
 - func[136] size=85 <__rdl_realloc>
 - func[137] size=699 <_ZN3std9panicking12default_hook28_$u7b$$u7b$closure$u7d$$u7d$17haed2194222b3e512E>
 - func[138] size=30 <_ZN3std9panicking3try7do_call17hba2245c23b34bfc8E>
 - func[139] size=159 <rust_begin_unwind>
 - func[140] size=488 <_ZN3std9panicking20rust_panic_with_hook17h7f90b1acd5ff521cE>
 - func[141] size=354 <_ZN90_$LT$std..panicking..begin_panic_handler..PanicPayload$u20$as$u20$core..panic..BoxMeUp$GT$8take_box17hf68c26a79265806aE>
 - func[142] size=260 <_ZN90_$LT$std..panicking..begin_panic_handler..PanicPayload$u20$as$u20$core..panic..BoxMeUp$GT$3get17h2f13d8d04478e036E>
 - func[143] size=102 <_ZN91_$LT$std..panicking..begin_panic..PanicPayload$LT$A$GT$$u20$as$u20$core..panic..BoxMeUp$GT$8take_box17hb16aceddc760d867E>
 - func[144] size=37 <_ZN91_$LT$std..panicking..begin_panic..PanicPayload$LT$A$GT$$u20$as$u20$core..panic..BoxMeUp$GT$3get17h1e86d8331d944ed0E>
 - func[145] size=119 <rust_panic>
 - func[146] size=569 <_ZN3std2rt19lang_start_internal17hb21784bb01c7c753E>
 - func[147] size=119 <_ZN62_$LT$std..ffi..c_str..NulError$u20$as$u20$core..fmt..Debug$GT$3fmt17hdbdc592c640fe94eE>
 - func[148] size=7 <_ZN3std3sys4wasi7process8ExitCode6as_i3217h1909ac59d2547a0aE>
 - func[149] size=15 <__rust_maybe_catch_panic>
 - func[150] size=4 <__rust_start_panic>
 - func[151] size=7 <_ZN4wasi5error5Error9raw_error17ha81beb7b4fa33a3dE>
 - func[152] size=12 <_ZN4wasi13lib_generated8args_get17ha2cc1da03f4386e9E>
 - func[153] size=108 <_ZN4wasi13lib_generated14args_sizes_get17h5f7f470ade5347b9E>
 - func[154] size=96 <_ZN4wasi13lib_generated8fd_write17hcbb26a9193d90ff3E>
 - func[155] size=40 <_ZN9backtrace5print12BacktraceFmt3new17h3cebab89049ca43eE>
 - func[156] size=21 <_ZN9backtrace5print12BacktraceFmt11add_context17h1dba2b5dbc8bc178E>
 - func[157] size=4 <_ZN9backtrace5print12BacktraceFmt6finish17h5861df54136c954dE>
 - func[158] size=4 <abort>
 - func[159] size=10 <malloc>
 - func[160] size=6622 <dlmalloc>
 - func[161] size=10 <free>
 - func[162] size=1908 <dlfree>
 - func[163] size=99 <calloc>
 - func[164] size=1203 <realloc>
 - func[165] size=1787 <dispose_chunk>
 - func[166] size=424 <internal_memalign>
 - func[167] size=31 <aligned_alloc>
 - func[168] size=11 <_Exit>
 - func[169] size=394 <__wasilibc_populate_libpreopen>
 - func[170] size=187 <__wasilibc_populate_environ>
 - func[171] size=78 <sbrk>
 - func[172] size=2 <dummy>
 - func[173] size=14 <__prepare_for_exit>
 - func[174] size=136 <getenv>
 - func[175] size=454 <memmove>
 - func[176] size=180 <strlen>
 - func[177] size=171 <strerror>
 - func[178] size=94 <strerror_r>
 - func[179] size=228 <__strchrnul>
 - func[180] size=1448 <memcpy>
 - func[181] size=380 <memset>
 - func[182] size=143 <strncmp>
 - func[183] size=73 <memcmp>
 - func[184] size=4 <dummy>
 - func[185] size=12 <__lctrans>
 - func[186] size=13 <_ZN5alloc5alloc18handle_alloc_error17h372aacb639e2de27E>
 - func[187] size=23 <_ZN5alloc7raw_vec17capacity_overflow17h545b4b1a9ba97ff8E>
 - func[188] size=28 <_ZN5alloc6string13FromUtf8Error10into_bytes17h03cb5aea6ff20b89E>
 - func[189] size=28 <_ZN5alloc6string104_$LT$impl$u20$core..convert..From$LT$alloc..string..String$GT$$u20$for$u20$alloc..vec..Vec$LT$u8$GT$$GT$4from17h8c28c811a2a829ddE>
 - func[190] size=2 <_ZN4core3ptr18real_drop_in_place17h38a660153738b32fE>
 - func[191] size=2 <_ZN4core3ptr18real_drop_in_place17h650094a6a70338f7E>
 - func[192] size=129 <_ZN4core9panicking18panic_bounds_check17h42ce3eaf53169acbE>
 - func[193] size=70 <_ZN4core9panicking5panic17hc60400b47c695700E>
 - func[194] size=133 <_ZN4core5slice20slice_index_len_fail17hfc4485e8c33f2d47E>
 - func[195] size=133 <_ZN4core5slice22slice_index_order_fail17heebd88c1be3dadefE>
 - func[196] size=925 <_ZN4core3fmt9Formatter3pad17h2edb8e7d7e605d23E>
 - func[197] size=1190 <_ZN4core3str16slice_error_fail17he3cd070c8cb5f5f5E>
 - func[198] size=62 <_ZN4core9panicking9panic_fmt17h8eef3a14480998beE>
 - func[199] size=17 <_ZN4core3fmt3num3imp52_$LT$impl$u20$core..fmt..Display$u20$for$u20$u32$GT$3fmt17h81afefe9a006429dE>
 - func[200] size=1169 <_ZN4core3fmt5write17h8876819fabc0b258E>
 - func[201] size=137 <_ZN71_$LT$core..ops..range..Range$LT$Idx$GT$$u20$as$u20$core..fmt..Debug$GT$3fmt17hf1b5fd652ff8f28dE>
 - func[202] size=337 <_ZN4core3fmt3num52_$LT$impl$u20$core..fmt..Debug$u20$for$u20$usize$GT$3fmt17h3b17d39de7fdc1f1E>
 - func[203] size=13 <_ZN36_$LT$T$u20$as$u20$core..any..Any$GT$7type_id17h47a9f9063b0c3dbcE>
 - func[204] size=33 <_ZN60_$LT$core..cell..BorrowError$u20$as$u20$core..fmt..Debug$GT$3fmt17hf295ea4ef037c8ddE>
 - func[205] size=33 <_ZN63_$LT$core..cell..BorrowMutError$u20$as$u20$core..fmt..Debug$GT$3fmt17habbe3fa4e4e9f71eE>
 - func[206] size=213 <_ZN82_$LT$core..char..EscapeDebug$u20$as$u20$core..iter..traits..iterator..Iterator$GT$4next17h0ef1301de9a0af9aE>
 - func[207] size=7 <_ZN4core5panic9PanicInfo7message17hb5a2f77065892d6eE>
 - func[208] size=7 <_ZN4core5panic9PanicInfo8location17h198cc11e8ca65b7cE>
 - func[209] size=20 <_ZN44_$LT$$RF$T$u20$as$u20$core..fmt..Display$GT$3fmt17h9fac0349c74cb035E>
 - func[210] size=30 <_ZN4core5panic8Location20internal_constructor17h907b86da1c041b0eE>
 - func[211] size=12 <_ZN4core5panic8Location4file17h916ad762787e0b09E>
 - func[212] size=7 <_ZN4core5panic8Location4line17h51d324d36825685fE>
 - func[213] size=7 <_ZN4core5panic8Location6column17h92ef532fcdc90d17E>
 - func[214] size=172 <_ZN60_$LT$core..panic..Location$u20$as$u20$core..fmt..Display$GT$3fmt17h907319866752d049E>
 - func[215] size=530 <_ZN4core3fmt8builders11DebugStruct5field17hbd0e2a659c73823bE>
 - func[216] size=112 <_ZN4core6option13expect_failed17h48822fc6fce9003fE>
 - func[217] size=24 <_ZN42_$LT$$RF$T$u20$as$u20$core..fmt..Debug$GT$3fmt17haa94c1a554592613E>
 - func[218] size=151 <_ZN4core6result13unwrap_failed17h89d8c4399f5be1adE>
 - func[219] size=2 <_ZN63_$LT$core..ffi..VaListImpl$u20$as$u20$core..ops..drop..Drop$GT$4drop17h33b53169660fa804E>
 - func[220] size=375 <_ZN4core5slice6memchr6memchr17h244fba075962fc22E>
 - func[221] size=363 <_ZN4core5slice6memchr7memrchr17h0b3ee6c1c240e3c2E>
 - func[222] size=23 <_ZN4core5slice25slice_index_overflow_fail17h8a1eef5e63367db8E>
 - func[223] size=16 <_ZN4core3str5lossy9Utf8Lossy10from_bytes17h7dab23bdc987c3f1E>
 - func[224] size=16 <_ZN4core3str5lossy9Utf8Lossy6chunks17h678e80bba7d8a004E>
 - func[225] size=1321 <_ZN96_$LT$core..str..lossy..Utf8LossyChunksIter$u20$as$u20$core..iter..traits..iterator..Iterator$GT$4next17h3cc4f6dc97be609eE>
 - func[226] size=272 <_ZN66_$LT$core..str..lossy..Utf8Lossy$u20$as$u20$core..fmt..Display$GT$3fmt17h01e01d86d9c10b50E>
 - func[227] size=327 <_ZN4core7unicode9bool_trie8BoolTrie6lookup17h84f73bedeaa3b078E>
 - func[228] size=199 <_ZN4core7unicode9printable12is_printable17hed06e069218dc178E>
 - func[229] size=42 <_ZN4core3str6traits101_$LT$impl$u20$core..slice..SliceIndex$LT$str$GT$$u20$for$u20$core..ops..range..Range$LT$usize$GT$$GT$5index28_$u7b$$u7b$closure$u7d$$u7d$17he28276d81535378cE>
 - func[230] size=166 <_ZN4core3fmt3num52_$LT$impl$u20$core..fmt..LowerHex$u20$for$u20$i8$GT$3fmt17hc0bd685e8a486811E>
 - func[231] size=120 <_ZN4core3str9from_utf817hc9d846e05f440661E>
 - func[232] size=933 <_ZN4core3str19run_utf8_validation17h7e6a021aaed33521E>
 - func[233] size=17 <_ZN4core3fmt3num3imp51_$LT$impl$u20$core..fmt..Display$u20$for$u20$u8$GT$3fmt17h6bbc810392989f25E>
 - func[234] size=406 <_ZN4core3fmt8builders10DebugInner5entry17h4245dad62c1db899E>
 - func[235] size=588 <_ZN41_$LT$char$u20$as$u20$core..fmt..Debug$GT$3fmt17h9a3163a3c6013c6cE>
 - func[236] size=590 <_ZN68_$LT$core..fmt..builders..PadAdapter$u20$as$u20$core..fmt..Write$GT$9write_str17he40b71e6e495ad7cE>
 - func[237] size=408 <_ZN4core3fmt8builders10DebugTuple5field17hbd38ecaa7052e2cfE>
 - func[238] size=167 <_ZN4core3fmt8builders10DebugTuple6finish17ha689661cc00c12a4E>
 - func[239] size=16 <_ZN4core3fmt8builders8DebugSet5entry17hf39c7622bed830d6E>
 - func[240] size=58 <_ZN4core3fmt8builders9DebugList6finish17h8425cc974c8800a1E>
 - func[241] size=265 <_ZN4core3fmt5Write10write_char17h0a40abd75ed3683dE>
 - func[242] size=113 <_ZN4core3fmt5Write9write_fmt17hbfa684fcf67a9237E>
 - func[243] size=17 <_ZN50_$LT$$RF$mut$u20$W$u20$as$u20$core..fmt..Write$GT$9write_str17h071370f55648a353E>
 - func[244] size=15 <_ZN50_$LT$$RF$mut$u20$W$u20$as$u20$core..fmt..Write$GT$10write_char17hca1d204488cb89c9E>
 - func[245] size=116 <_ZN50_$LT$$RF$mut$u20$W$u20$as$u20$core..fmt..Write$GT$9write_fmt17h297d40b2f7ee4bd8E>
 - func[246] size=17 <_ZN4core3fmt10ArgumentV110show_usize17h659f2e7b81f60987E>
 - func[247] size=361 <_ZN4core3fmt3num3imp7fmt_u6417h042ebedf17751bd0E>
 - func[248] size=116 <_ZN59_$LT$core..fmt..Arguments$u20$as$u20$core..fmt..Display$GT$3fmt17h1d4c2ae0c05a3698E>
 - func[249] size=788 <_ZN4core3fmt9Formatter12pad_integral17hfef5805f826bffbfE>
 - func[250] size=92 <_ZN4core3fmt9Formatter12pad_integral12write_prefix17h7320e38828a59752E>
 - func[251] size=29 <_ZN4core3fmt9Formatter9write_str17haa5886101a13330aE>
 - func[252] size=116 <_ZN4core3fmt9Formatter9write_fmt17h703d37c837f1e686E>
 - func[253] size=13 <_ZN4core3fmt9Formatter9alternate17haad4b8880f5e5b7bE>
 - func[254] size=13 <_ZN4core3fmt9Formatter15debug_lower_hex17ha70a7ac18ca965afE>
 - func[255] size=13 <_ZN4core3fmt9Formatter15debug_upper_hex17h5b80b9b67b737f51E>
 - func[256] size=56 <_ZN4core3fmt9Formatter11debug_tuple17h537225ecd55cb5d7E>
 - func[257] size=58 <_ZN4core3fmt9Formatter10debug_list17h3e245a8d65529e2cE>
 - func[258] size=27 <_ZN57_$LT$core..fmt..Formatter$u20$as$u20$core..fmt..Write$GT$10write_char17hd0c803174082e12eE>
 - func[259] size=1233 <_ZN40_$LT$str$u20$as$u20$core..fmt..Debug$GT$3fmt17h00c99ec58e8a423cE>
 - func[260] size=14 <_ZN42_$LT$str$u20$as$u20$core..fmt..Display$GT$3fmt17h1f0b63dac53d0aecE>
 - func[261] size=163 <_ZN4core3fmt3num53_$LT$impl$u20$core..fmt..LowerHex$u20$for$u20$i32$GT$3fmt17h58623d8131b79122E>
 - func[262] size=380 <_ZN4core7unicode9printable5check17haa15d32184b13ee5E>
 - func[263] size=16 <_ZN4core7unicode6tables16derived_property15Grapheme_Extend17hae9f1cc446db1bb7E>
 - func[264] size=294 <_ZN57_$LT$core..str..Utf8Error$u20$as$u20$core..fmt..Debug$GT$3fmt17h58be16dd691a675aE>
 - func[265] size=165 <_ZN4core3fmt3num52_$LT$impl$u20$core..fmt..UpperHex$u20$for$u20$i8$GT$3fmt17hb07de94750255221E>
 - func[266] size=162 <_ZN4core3fmt3num53_$LT$impl$u20$core..fmt..UpperHex$u20$for$u20$i32$GT$3fmt17he6067a6f8103a390E>
 - func[267] size=41 <_ZN4core3fmt3num3imp52_$LT$impl$u20$core..fmt..Display$u20$for$u20$i32$GT$3fmt17ha3fe23ff267fac81E>
 - func[268] size=354 <_ZN42_$LT$$RF$T$u20$as$u20$core..fmt..Debug$GT$3fmt17h43093690dcf30e1dE>
 - func[269] size=15 <_ZN42_$LT$$RF$T$u20$as$u20$core..fmt..Debug$GT$3fmt17h9bfacaf2c5539e85E>
 - func[270] size=346 <_ZN42_$LT$$RF$T$u20$as$u20$core..fmt..Debug$GT$3fmt17ha8d8323b2b975936E>
Data[3]:
 - segment[0] size=11912 - init i32=1048576
  - 0100000: 0100 0000 0400 0000 0400 0000 0200 0000  ................
  - 0100010: 0200 0000 0300 0000 6361 6c6c 6564 2060  ........called `
  - 0100020: 4f70 7469 6f6e 3a3a 756e 7772 6170 2829  Option::unwrap()
  - 0100030: 6020 6f6e 2061 2060 4e6f 6e65 6020 7661  ` on a `None` va
  - 0100040: 6c75 652f 7275 7374 632f 3565 3161 3739  lue/rustc/5e1a79
  - 0100050: 3938 3432 6261 3665 6434 6135 3765 3931  9842ba6ed4a57e91
  - 0100060: 6637 6162 3934 3335 3934 3734 3832 6637  f7ab9435947482f7
  - 0100070: 6438 2f73 7263 2f6c 6962 636f 7265 2f6d  d8/src/libcore/m
  - 0100080: 6163 726f 732f 6d6f 642e 7273 4300 1000  acros/mod.rsC...
  - 0100090: 4900 0000 0f00 0000 2800 0000 2020 696e  I.......(...  in
  - 01000a0: 206c 6561 6628 290a 9c00 1000 0c00 0000   leaf().........
  - 01000b0: 2020 2020 2c20 6164 6472 3a20 2028 290a      , addr:  ().
  - 01000c0: b000 1000 0400 0000 b400 1000 0800 0000  ................
  - 01000d0: bc00 1000 0200 0000 be00 1000 0200 0000  ................
  - 01000e0: 676c 6f62 616c 2063 6f6e 7374 2073 7472  global const str
  - 01000f0: 696e 6700 e000 1000 1300 0000 2020 2020  ing.........    
  - 0100100: 7374 6163 6b20 7661 6c75 6520 696e 206c  stack value in l
  - 0100110: 6561 6628 2920 6675 6e63 7469 6f6e 2c20  eaf() function, 
  - 0100120: 6164 6472 3a20 0000 fc00 1000 2a00 0000  addr: ......*...
  - 0100130: bc00 1000 0200 0000 be00 1000 0200 0000  ................
  - 0100140: 2020 2020 7374 6163 6b20 6772 6f77 733a      stack grows:
  - 0100150: 200a 0000 4001 1000 1100 0000 5101 1000   ...@.......Q...
  - 0100160: 0100 0000 2020 2020 6172 6720 303a 2000  ....    arg 0: .
  - 0100170: 6401 1000 0b00 0000 b400 1000 0800 0000  d...............
  - 0100180: bc00 1000 0200 0000 be00 1000 0200 0000  ................
  - 0100190: 7374 6163 6b2d 616c 6c6f 6361 7465 6420  stack-allocated 
  - 01001a0: 286c 6f63 616c 2920 7374 7269 6e67 6479  (local) stringdy
  - 01001b0: 6e61 6d69 6361 6c6c 7920 2868 6561 7029  namically (heap)
  - 01001c0: 2061 6c6c 6f63 6174 6564 2073 7472 696e   allocated strin
  - 01001d0: 6720 2069 6e20 696e 7465 726d 6564 6961  g  in intermedia
  - 01001e0: 7465 2829 0a00 0000 d101 1000 1400 0000  te()............
  - 01001f0: 2020 696e 206d 6169 6e28 290a f001 1000    in main().....
  - 0100200: 0c00 0000 6173 7365 7274 696f 6e20 6661  ....assertion fa
  - 0100210: 696c 6564 3a20 6028 6c65 6674 203d 3d20  iled: `(left == 
  - 0100220: 7269 6768 7429 600a 2020 6c65 6674 3a20  right)`.  left: 
  - 0100230: 6060 2c0a 2072 6967 6874 3a20 6060 3a20  ``,. right: ``: 
  - 0100240: 0402 1000 2d00 0000 3102 1000 0c00 0000  ....-...1.......
  - 0100250: 3d02 1000 0300 0000 6465 7374 696e 6174  =.......destinat
  - 0100260: 696f 6e20 616e 6420 736f 7572 6365 2073  ion and source s
  - 0100270: 6c69 6365 7320 6861 7665 2064 6966 6665  lices have diffe
  - 0100280: 7265 6e74 206c 656e 6774 6873 5802 1000  rent lengthsX...
  - 0100290: 3400 0000 2f72 7573 7463 2f35 6531 6137  4.../rustc/5e1a7
  - 01002a0: 3939 3834 3262 6136 6564 3461 3537 6539  99842ba6ed4a57e9
  - 01002b0: 3166 3761 6239 3433 3539 3437 3438 3266  1f7ab9435947482f
  - 01002c0: 3764 382f 7372 632f 6c69 6263 6f72 652f  7d8/src/libcore/
  - 01002d0: 6d61 6372 6f73 2f6d 6f64 2e72 7300 0000  macros/mod.rs...
  - 01002e0: 9402 1000 4900 0000 1700 0000 0d00 0000  ....I...........
  - 01002f0: 1700 0000 0400 0000 0400 0000 1800 0000  ................
  - 0100300: 1900 0000 1a00 0000 1700 0000 0400 0000  ................
  - 0100310: 0400 0000 1b00 0000 1c00 0000 1d00 0000  ................
  - 0100320: 1700 0000 0400 0000 0400 0000 1e00 0000  ................
  - 0100330: 1f00 0000 2000 0000 1700 0000 0400 0000  .... ...........
  - 0100340: 0400 0000 2100 0000 616c 7265 6164 7920  ....!...already 
  - 0100350: 626f 7272 6f77 6564 616c 7265 6164 7920  borrowedalready 
  - 0100360: 6d75 7461 626c 7920 626f 7272 6f77 6564  mutably borrowed
  - 0100370: 2f72 7573 7463 2f35 6531 6137 3939 3834  /rustc/5e1a79984
  - 0100380: 3262 6136 6564 3461 3537 6539 3166 3761  2ba6ed4a57e91f7a
  - 0100390: 6239 3433 3539 3437 3438 3266 3764 382f  b9435947482f7d8/
  - 01003a0: 7372 632f 6c69 6263 6f72 652f 6d61 6372  src/libcore/macr
  - 01003b0: 6f73 2f6d 6f64 2e72 7361 7373 6572 7469  os/mod.rsasserti
  - 01003c0: 6f6e 2066 6169 6c65 643a 2060 286c 6566  on failed: `(lef
  - 01003d0: 7420 3d3d 2072 6967 6874 2960 0a20 206c  t == right)`.  l
  - 01003e0: 6566 743a 2060 602c 0a20 7269 6768 743a  eft: ``,. right:
  - 01003f0: 2060 6000 b903 1000 2d00 0000 e603 1000   ``.....-.......
  - 0100400: 0c00 0000 f203 1000 0100 0000 7003 1000  ............p...
  - 0100410: 4900 0000 0f00 0000 2800 0000 2200 0000  I.......(..."...
  - 0100420: 0000 0000 0100 0000 2300 0000 603a 2000  ........#...`: .
  - 0100430: b903 1000 2d00 0000 e603 1000 0c00 0000  ....-...........
  - 0100440: 2c04 1000 0300 0000 6361 6c6c 6564 2060  ,.......called `
  - 0100450: 4f70 7469 6f6e 3a3a 756e 7772 6170 2829  Option::unwrap()
  - 0100460: 6020 6f6e 2061 2060 4e6f 6e65 6020 7661  ` on a `None` va
  - 0100470: 6c75 6500 2200 0000 0000 0000 0100 0000  lue."...........
  - 0100480: 2400 0000 2200 0000 0000 0000 0100 0000  $..."...........
  - 0100490: 2500 0000 2600 0000 1000 0000 0400 0000  %...&...........
  - 01004a0: 2700 0000 6361 6c6c 6564 2060 5265 7375  '...called `Resu
  - 01004b0: 6c74 3a3a 756e 7772 6170 2829 6020 6f6e  lt::unwrap()` on
  - 01004c0: 2061 6e20 6045 7272 6020 7661 6c75 6500   an `Err` value.
  - 01004d0: 2800 0000 0c00 0000 0400 0000 2900 0000  (...........)...
  - 01004e0: 2a00 0000 0800 0000 0400 0000 2b00 0000  *...........+...
  - 01004f0: 2c00 0000 0800 0000 0400 0000 2d00 0000  ,...........-...
  - 0100500: 3c3a 3a63 6f72 653a 3a6d 6163 726f 733a  <::core::macros:
  - 0100510: 3a70 616e 6963 206d 6163 726f 733e 0000  :panic macros>..
  - 0100520: 0005 1000 1e00 0000 0300 0000 0a00 0000  ................
  - 0100530: 6173 7365 7274 696f 6e20 6661 696c 6564  assertion failed
  - 0100540: 3a20 656e 6420 3c3d 206c 656e 5472 6965  : end <= lenTrie
  - 0100550: 6420 746f 2073 6872 696e 6b20 746f 2061  d to shrink to a
  - 0100560: 206c 6172 6765 7220 6361 7061 6369 7479   larger capacity
  - 0100570: 1700 0000 0400 0000 0400 0000 0d00 0000  ................
  - 0100580: 7372 632f 6c69 6273 7464 2f74 6872 6561  src/libstd/threa
  - 0100590: 642f 6d6f 642e 7273 8005 1000 1800 0000  d/mod.rs........
  - 01005a0: 8903 0000 1300 0000 696e 636f 6e73 6973  ........inconsis
  - 01005b0: 7465 6e74 2070 6172 6b20 7374 6174 6500  tent park state.
  - 01005c0: 0200 0000 7061 726b 2073 7461 7465 2063  ....park state c
  - 01005d0: 6861 6e67 6564 2075 6e65 7870 6563 7465  hanged unexpecte
  - 01005e0: 646c 7900 c405 1000 1f00 0000 8005 1000  dly.............
  - 01005f0: 1800 0000 8603 0000 0d00 0000 8005 1000  ................
  - 0100600: 1800 0000 1f04 0000 1100 0000 6661 696c  ............fail
  - 0100610: 6564 2074 6f20 6765 6e65 7261 7465 2075  ed to generate u
  - 0100620: 6e69 7175 6520 7468 7265 6164 2049 443a  nique thread ID:
  - 0100630: 2062 6974 7370 6163 6520 6578 6861 7573   bitspace exhaus
  - 0100640: 7465 6474 6872 6561 6420 6e61 6d65 206d  tedthread name m
  - 0100650: 6179 206e 6f74 2063 6f6e 7461 696e 2069  ay not contain i
  - 0100660: 6e74 6572 696f 7220 6e75 6c6c 2062 7974  nterior null byt
  - 0100670: 6573 0000 8005 1000 1800 0000 9404 0000  es..............
  - 0100680: 1200 0000 696e 636f 6e73 6973 7465 6e74  ....inconsistent
  - 0100690: 2073 7461 7465 2069 6e20 756e 7061 726b   state in unpark
  - 01006a0: 5255 5354 5f42 4143 4b54 5241 4345 3066  RUST_BACKTRACE0f
  - 01006b0: 6169 6c65 6420 746f 2067 6574 2065 6e76  ailed to get env
  - 01006c0: 6972 6f6e 6d65 6e74 2076 6172 6961 626c  ironment variabl
  - 01006d0: 6520 6000 af06 1000 2400 0000 2c04 1000  e `.....$...,...
  - 01006e0: 0300 0000 7372 632f 6c69 6273 7464 2f65  ....src/libstd/e
  - 01006f0: 6e76 2e72 7300 0000 e406 1000 1100 0000  nv.rs...........
  - 0100700: fb00 0000 1d00 0000 2800 0000 0c00 0000  ........(.......
  - 0100710: 0400 0000 2e00 0000 2f00 0000 2f00 0000  ......../.../...
  - 0100720: 3000 0000 3100 0000 3200 0000 3300 0000  0...1...2...3...
  - 0100730: 2264 6174 6120 7072 6f76 6964 6564 2063  "data provided c
  - 0100740: 6f6e 7461 696e 7320 6120 6e75 6c20 6279  ontains a nul by
  - 0100750: 7465 6661 696c 6564 2074 6f20 7772 6974  tefailed to writ
  - 0100760: 6520 7468 6520 6275 6666 6572 6564 2064  e the buffered d
  - 0100770: 6174 6175 6e65 7870 6563 7465 6420 656e  ataunexpected en
  - 0100780: 6420 6f66 2066 696c 656f 7468 6572 206f  d of fileother o
  - 0100790: 7320 6572 726f 726f 7065 7261 7469 6f6e  s erroroperation
  - 01007a0: 2069 6e74 6572 7275 7074 6564 7772 6974   interruptedwrit
  - 01007b0: 6520 7a65 726f 7469 6d65 6420 6f75 7469  e zerotimed outi
  - 01007c0: 6e76 616c 6964 2064 6174 6169 6e76 616c  nvalid datainval
  - 01007d0: 6964 2069 6e70 7574 2070 6172 616d 6574  id input paramet
  - 01007e0: 6572 6f70 6572 6174 696f 6e20 776f 756c  eroperation woul
  - 01007f0: 6420 626c 6f63 6b65 6e74 6974 7920 616c  d blockentity al
  - 0100800: 7265 6164 7920 6578 6973 7473 6272 6f6b  ready existsbrok
  - 0100810: 656e 2070 6970 6561 6464 7265 7373 206e  en pipeaddress n
  - 0100820: 6f74 2061 7661 696c 6162 6c65 6164 6472  ot availableaddr
  - 0100830: 6573 7320 696e 2075 7365 6e6f 7420 636f  ess in usenot co
  - 0100840: 6e6e 6563 7465 6463 6f6e 6e65 6374 696f  nnectedconnectio
  - 0100850: 6e20 6162 6f72 7465 6463 6f6e 6e65 6374  n abortedconnect
  - 0100860: 696f 6e20 7265 7365 7463 6f6e 6e65 6374  ion resetconnect
  - 0100870: 696f 6e20 7265 6675 7365 6470 6572 6d69  ion refusedpermi
  - 0100880: 7373 696f 6e20 6465 6e69 6564 656e 7469  ssion deniedenti
  - 0100890: 7479 206e 6f74 2066 6f75 6e64 5207 1000  ty not foundR...
  - 01008a0: 0000 0000 2028 6f73 2065 7272 6f72 2029  .... (os error )
  - 01008b0: 5207 1000 0000 0000 a408 1000 0b00 0000  R...............
  - 01008c0: af08 1000 0100 0000 6361 6e6e 6f74 2061  ........cannot a
  - 01008d0: 6363 6573 7320 7374 646f 7574 2064 7572  ccess stdout dur
  - 01008e0: 696e 6720 7368 7574 646f 776e 6661 696c  ing shutdownfail
  - 01008f0: 6564 2070 7269 6e74 696e 6720 746f 203a  ed printing to :
  - 0100900: 2000 0000 ec08 1000 1300 0000 ff08 1000   ...............
  - 0100910: 0200 0000 7372 632f 6c69 6273 7464 2f69  ....src/libstd/i
  - 0100920: 6f2f 7374 6469 6f2e 7273 0000 1409 1000  o/stdio.rs......
  - 0100930: 1600 0000 1803 0000 0900 0000 7374 646f  ............stdo
  - 0100940: 7574 6661 696c 6564 2074 6f20 7772 6974  utfailed to writ
  - 0100950: 6520 7768 6f6c 6520 6275 6666 6572 0000  e whole buffer..
  - 0100960: 3400 0000 0c00 0000 0400 0000 3500 0000  4...........5...
  - 0100970: 3600 0000 3700 0000 666f 726d 6174 7465  6...7...formatte
  - 0100980: 7220 6572 726f 7200 3400 0000 0c00 0000  r error.4.......
  - 0100990: 0400 0000 3800 0000 3900 0000 3a00 0000  ....8...9...:...
  - 01009a0: 7372 632f 6c69 6273 7464 2f73 796e 632f  src/libstd/sync/
  - 01009b0: 636f 6e64 7661 722e 7273 0000 a009 1000  condvar.rs......
  - 01009c0: 1a00 0000 4802 0000 1200 0000 6174 7465  ....H.......atte
  - 01009d0: 6d70 7465 6420 746f 2075 7365 2061 2063  mpted to use a c
  - 01009e0: 6f6e 6469 7469 6f6e 2076 6172 6961 626c  ondition variabl
  - 01009f0: 6520 7769 7468 2074 776f 206d 7574 6578  e with two mutex
  - 0100a00: 6573 0000 1700 0000 0400 0000 0400 0000  es..............
  - 0100a10: 3b00 0000 3c00 0000 7372 632f 6c69 6273  ;...<...src/libs
  - 0100a20: 7464 2f73 796e 632f 6f6e 6365 2e72 7300  td/sync/once.rs.
  - 0100a30: 180a 1000 1700 0000 a801 0000 1500 0000  ................
  - 0100a40: 6173 7365 7274 696f 6e20 6661 696c 6564  assertion failed
  - 0100a50: 3a20 7374 6174 655f 616e 645f 7175 6575  : state_and_queu
  - 0100a60: 6520 2620 5354 4154 455f 4d41 534b 203d  e & STATE_MASK =
  - 0100a70: 3d20 5255 4e4e 494e 4700 0000 180a 1000  = RUNNING.......
  - 0100a80: 1700 0000 8c01 0000 1500 0000 4f6e 6365  ............Once
  - 0100a90: 2069 6e73 7461 6e63 6520 6861 7320 7072   instance has pr
  - 0100aa0: 6576 696f 7573 6c79 2062 6565 6e20 706f  eviously been po
  - 0100ab0: 6973 6f6e 6564 0000 180a 1000 1700 0000  isoned..........
  - 0100ac0: e901 0000 0900 0000 7372 632f 6c69 6273  ........src/libs
  - 0100ad0: 7464 2f73 7973 5f63 6f6d 6d6f 6e2f 6174  td/sys_common/at
  - 0100ae0: 5f65 7869 745f 696d 702e 7273 c80a 1000  _exit_imp.rs....
  - 0100af0: 2400 0000 3100 0000 0d00 0000 6173 7365  $...1.......asse
  - 0100b00: 7274 696f 6e20 6661 696c 6564 3a20 7175  rtion failed: qu
  - 0100b10: 6575 6520 213d 2044 4f4e 4500 3d00 0000  eue != DONE.=...
  - 0100b20: 1000 0000 0400 0000 3e00 0000 3f00 0000  ........>...?...
  - 0100b30: 6e6f 7465 3a20 536f 6d65 2064 6574 6169  note: Some detai
  - 0100b40: 6c73 2061 7265 206f 6d69 7474 6564 2c20  ls are omitted, 
  - 0100b50: 7275 6e20 7769 7468 2060 5255 5354 5f42  run with `RUST_B
  - 0100b60: 4143 4b54 5241 4345 3d66 756c 6c60 2066  ACKTRACE=full` f
  - 0100b70: 6f72 2061 2076 6572 626f 7365 2062 6163  or a verbose bac
  - 0100b80: 6b74 7261 6365 2e0a 300b 1000 5800 0000  ktrace..0...X...
  - 0100b90: 6675 6c6c 3c75 6e6b 6e6f 776e 3e50 6f69  full<unknown>Poi
  - 0100ba0: 736f 6e45 7272 6f72 207b 2069 6e6e 6572  sonError { inner
  - 0100bb0: 3a20 2e2e 207d 7372 632f 6c69 6273 7464  : .. }src/libstd
  - 0100bc0: 2f73 7973 5f63 6f6d 6d6f 6e2f 7468 7265  /sys_common/thre
  - 0100bd0: 6164 5f69 6e66 6f2e 7273 0000 b60b 1000  ad_info.rs......
  - 0100be0: 2400 0000 2800 0000 1a00 0000 6173 7365  $...(.......asse
  - 0100bf0: 7274 696f 6e20 6661 696c 6564 3a20 632e  rtion failed: c.
  - 0100c00: 626f 7272 6f77 2829 2e69 735f 6e6f 6e65  borrow().is_none
  - 0100c10: 2829 6661 7461 6c20 7275 6e74 696d 6520  ()fatal runtime 
  - 0100c20: 6572 726f 723a 200a 120c 1000 1500 0000  error: .........
  - 0100c30: 270c 1000 0100 0000 5c78 0000 380c 1000  '.......\x..8...
  - 0100c40: 0200 0000 0100 0000 0000 0000 2000 0000  ............ ...
  - 0100c50: 0800 0000 0300 0000 0000 0000 0000 0000  ................
  - 0100c60: 0200 0000 0300 0000 1700 0000 0400 0000  ................
  - 0100c70: 0400 0000 4000 0000 6d65 6d6f 7279 2061  ....@...memory a
  - 0100c80: 6c6c 6f63 6174 696f 6e20 6f66 2020 6279  llocation of  by
  - 0100c90: 7465 7320 6661 696c 6564 0000 780c 1000  tes failed..x...
  - 0100ca0: 1500 0000 8d0c 1000 0d00 0000 426f 783c  ............Box<
  - 0100cb0: 416e 793e 3c75 6e6e 616d 6564 3e00 0000  Any><unnamed>...
  - 0100cc0: 2200 0000 0000 0000 0100 0000 4100 0000  "...........A...
  - 0100cd0: 4200 0000 4300 0000 4400 0000 4500 0000  B...C...D...E...
  - 0100ce0: 0000 0000 4600 0000 0800 0000 0400 0000  ....F...........
  - 0100cf0: 4700 0000 4800 0000 4900 0000 4a00 0000  G...H...I...J...
  - 0100d00: 4b00 0000 0000 0000 7468 7265 6164 2027  K.......thread '
  - 0100d10: 2720 7061 6e69 636b 6564 2061 7420 2727  ' panicked at ''
  - 0100d20: 2c20 0000 080d 1000 0800 0000 100d 1000  , ..............
  - 0100d30: 0f00 0000 1f0d 1000 0300 0000 270c 1000  ............'...
  - 0100d40: 0100 0000 6e6f 7465 3a20 7275 6e20 7769  ....note: run wi
  - 0100d50: 7468 2060 5255 5354 5f42 4143 4b54 5241  th `RUST_BACKTRA
  - 0100d60: 4345 3d31 6020 656e 7669 726f 6e6d 656e  CE=1` environmen
  - 0100d70: 7420 7661 7269 6162 6c65 2074 6f20 6469  t variable to di
  - 0100d80: 7370 6c61 7920 6120 6261 636b 7472 6163  splay a backtrac
  - 0100d90: 652e 0a00 440d 1000 4f00 0000 4c00 0000  e...D...O...L...
  - 0100da0: 1000 0000 0400 0000 4d00 0000 4e00 0000  ........M...N...
  - 0100db0: 2800 0000 0c00 0000 0400 0000 4f00 0000  (...........O...
  - 0100dc0: 2a00 0000 0800 0000 0400 0000 5000 0000  *...........P...
  - 0100dd0: 5100 0000 2a00 0000 0800 0000 0400 0000  Q...*...........
  - 0100de0: 5200 0000 7468 7265 6164 2070 616e 6963  R...thread panic
  - 0100df0: 6b65 6420 7768 696c 6520 7072 6f63 6573  ked while proces
  - 0100e00: 7369 6e67 2070 616e 6963 2e20 6162 6f72  sing panic. abor
  - 0100e10: 7469 6e67 2e0a 0000 e40d 1000 3200 0000  ting........2...
  - 0100e20: 7468 7265 6164 2070 616e 6963 6b65 6420  thread panicked 
  - 0100e30: 7768 696c 6520 7061 6e69 636b 696e 672e  while panicking.
  - 0100e40: 2061 626f 7274 696e 672e 0a00 200e 1000   aborting... ...
  - 0100e50: 2b00 0000 6661 696c 6564 2074 6f20 696e  +...failed to in
  - 0100e60: 6974 6961 7465 2070 616e 6963 2c20 6572  itiate panic, er
  - 0100e70: 726f 7220 540e 1000 2000 0000 4e75 6c45  ror T... ...NulE
  - 0100e80: 7272 6f72 1700 0000 0400 0000 0400 0000  rror............
  - 0100e90: 5300 0000 7372 632f 6c69 6273 7464 2f73  S...src/libstd/s
  - 0100ea0: 7973 2f77 6173 692f 2e2e 2f77 6173 6d2f  ys/wasi/../wasm/
  - 0100eb0: 636f 6e64 7661 722e 7273 0000 940e 1000  condvar.rs......
  - 0100ec0: 2600 0000 1700 0000 0900 0000 6361 6e27  &...........can'
  - 0100ed0: 7420 626c 6f63 6b20 7769 7468 2077 6562  t block with web
  - 0100ee0: 2061 7373 656d 626c 7973 7263 2f6c 6962   assemblysrc/lib
  - 0100ef0: 7374 642f 7379 732f 7761 7369 2f2e 2e2f  std/sys/wasi/../
  - 0100f00: 7761 736d 2f6d 7574 6578 2e72 7300 0000  wasm/mutex.rs...
  - 0100f10: e90e 1000 2400 0000 1600 0000 0900 0000  ....$...........
  - 0100f20: 6361 6e6e 6f74 2072 6563 7572 7369 7665  cannot recursive
  - 0100f30: 6c79 2061 6371 7569 7265 206d 7574 6578  ly acquire mutex
  - 0100f40: 7372 632f 6c69 6273 7464 2f73 7973 2f77  src/libstd/sys/w
  - 0100f50: 6173 692f 6f73 2e72 7300 0000 400f 1000  asi/os.rs...@...
  - 0100f60: 1900 0000 2400 0000 0d00 0000 7374 7265  ....$.......stre
  - 0100f70: 7272 6f72 5f72 2066 6169 6c75 7265 7277  rror_r failurerw
  - 0100f80: 6c6f 636b 206c 6f63 6b65 6420 666f 7220  lock locked for 
  - 0100f90: 7772 6974 696e 6700 7e0f 1000 1900 0000  writing.~.......
  - 0100fa0: 6f70 6572 6174 696f 6e20 6e6f 7420 7375  operation not su
  - 0100fb0: 7070 6f72 7465 6420 6f6e 2077 6173 6d20  pported on wasm 
  - 0100fc0: 7965 7473 7461 636b 2062 6163 6b74 7261  yetstack backtra
  - 0100fd0: 6365 3a0a 0000 0000 0000 0000 0000 0000  ce:.............
  - 0100fe0: 0019 1244 3b02 3f2c 4714 3d33 300a 1b06  ...D;.?,G.=30...
  - 0100ff0: 464b 4537 0f49 0e17 0340 1d3c 2b36 1f4a  FKE7.I...@.<+6.J
  - 0101000: 2d1c 0120 2529 2108 0c15 1622 2e10 383e  -.. %)!...."..8>
  - 0101010: 0b34 3118 2f41 0939 1123 4332 423a 0504  .41./A.9.#C2B:..
  - 0101020: 2628 270d 2a1e 3507 1a48 1324 4cff 0000  &('.*.5..H.$L...
  - 0101030: 5375 6363 6573 7300 496c 6c65 6761 6c20  Success.Illegal 
  - 0101040: 6279 7465 2073 6571 7565 6e63 6500 446f  byte sequence.Do
  - 0101050: 6d61 696e 2065 7272 6f72 0052 6573 756c  main error.Resul
  - 0101060: 7420 6e6f 7420 7265 7072 6573 656e 7461  t not representa
  - 0101070: 626c 6500 4e6f 7420 6120 7474 7900 5065  ble.Not a tty.Pe
  - 0101080: 726d 6973 7369 6f6e 2064 656e 6965 6400  rmission denied.
  - 0101090: 4f70 6572 6174 696f 6e20 6e6f 7420 7065  Operation not pe
  - 01010a0: 726d 6974 7465 6400 4e6f 2073 7563 6820  rmitted.No such 
  - 01010b0: 6669 6c65 206f 7220 6469 7265 6374 6f72  file or director
  - 01010c0: 7900 4e6f 2073 7563 6820 7072 6f63 6573  y.No such proces
  - 01010d0: 7300 4669 6c65 2065 7869 7374 7300 5661  s.File exists.Va
  - 01010e0: 6c75 6520 746f 6f20 6c61 7267 6520 666f  lue too large fo
  - 01010f0: 7220 6461 7461 2074 7970 6500 4e6f 2073  r data type.No s
  - 0101100: 7061 6365 206c 6566 7420 6f6e 2064 6576  pace left on dev
  - 0101110: 6963 6500 4f75 7420 6f66 206d 656d 6f72  ice.Out of memor
  - 0101120: 7900 5265 736f 7572 6365 2062 7573 7900  y.Resource busy.
  - 0101130: 496e 7465 7272 7570 7465 6420 7379 7374  Interrupted syst
  - 0101140: 656d 2063 616c 6c00 5265 736f 7572 6365  em call.Resource
  - 0101150: 2074 656d 706f 7261 7269 6c79 2075 6e61   temporarily una
  - 0101160: 7661 696c 6162 6c65 0049 6e76 616c 6964  vailable.Invalid
  - 0101170: 2073 6565 6b00 4372 6f73 732d 6465 7669   seek.Cross-devi
  - 0101180: 6365 206c 696e 6b00 5265 6164 2d6f 6e6c  ce link.Read-onl
  - 0101190: 7920 6669 6c65 2073 7973 7465 6d00 4469  y file system.Di
  - 01011a0: 7265 6374 6f72 7920 6e6f 7420 656d 7074  rectory not empt
  - 01011b0: 7900 436f 6e6e 6563 7469 6f6e 2072 6573  y.Connection res
  - 01011c0: 6574 2062 7920 7065 6572 004f 7065 7261  et by peer.Opera
  - 01011d0: 7469 6f6e 2074 696d 6564 206f 7574 0043  tion timed out.C
  - 01011e0: 6f6e 6e65 6374 696f 6e20 7265 6675 7365  onnection refuse
  - 01011f0: 6400 486f 7374 2069 7320 756e 7265 6163  d.Host is unreac
  - 0101200: 6861 626c 6500 4164 6472 6573 7320 696e  hable.Address in
  - 0101210: 2075 7365 0042 726f 6b65 6e20 7069 7065   use.Broken pipe
  - 0101220: 0049 2f4f 2065 7272 6f72 004e 6f20 7375  .I/O error.No su
  - 0101230: 6368 2064 6576 6963 6520 6f72 2061 6464  ch device or add
  - 0101240: 7265 7373 004e 6f20 7375 6368 2064 6576  ress.No such dev
  - 0101250: 6963 6500 4e6f 7420 6120 6469 7265 6374  ice.Not a direct
  - 0101260: 6f72 7900 4973 2061 2064 6972 6563 746f  ory.Is a directo
  - 0101270: 7279 0054 6578 7420 6669 6c65 2062 7573  ry.Text file bus
  - 0101280: 7900 4578 6563 2066 6f72 6d61 7420 6572  y.Exec format er
  - 0101290: 726f 7200 496e 7661 6c69 6420 6172 6775  ror.Invalid argu
  - 01012a0: 6d65 6e74 0041 7267 756d 656e 7420 6c69  ment.Argument li
  - 01012b0: 7374 2074 6f6f 206c 6f6e 6700 5379 6d62  st too long.Symb
  - 01012c0: 6f6c 6963 206c 696e 6b20 6c6f 6f70 0046  olic link loop.F
  - 01012d0: 696c 656e 616d 6520 746f 6f20 6c6f 6e67  ilename too long
  - 01012e0: 0054 6f6f 206d 616e 7920 6f70 656e 2066  .Too many open f
  - 01012f0: 696c 6573 2069 6e20 7379 7374 656d 004e  iles in system.N
  - 0101300: 6f20 6669 6c65 2064 6573 6372 6970 746f  o file descripto
  - 0101310: 7273 2061 7661 696c 6162 6c65 0042 6164  rs available.Bad
  - 0101320: 2066 696c 6520 6465 7363 7269 7074 6f72   file descriptor
  - 0101330: 004e 6f20 6368 696c 6420 7072 6f63 6573  .No child proces
  - 0101340: 7300 4261 6420 6164 6472 6573 7300 4669  s.Bad address.Fi
  - 0101350: 6c65 2074 6f6f 206c 6172 6765 0054 6f6f  le too large.Too
  - 0101360: 206d 616e 7920 6c69 6e6b 7300 4e6f 206c   many links.No l
  - 0101370: 6f63 6b73 2061 7661 696c 6162 6c65 0052  ocks available.R
  - 0101380: 6573 6f75 7263 6520 6465 6164 6c6f 636b  esource deadlock
  - 0101390: 2077 6f75 6c64 206f 6363 7572 0053 7461   would occur.Sta
  - 01013a0: 7465 206e 6f74 2072 6563 6f76 6572 6162  te not recoverab
  - 01013b0: 6c65 0050 7265 7669 6f75 7320 6f77 6e65  le.Previous owne
  - 01013c0: 7220 6469 6564 004f 7065 7261 7469 6f6e  r died.Operation
  - 01013d0: 2063 616e 6365 6c65 6400 4675 6e63 7469   canceled.Functi
  - 01013e0: 6f6e 206e 6f74 2069 6d70 6c65 6d65 6e74  on not implement
  - 01013f0: 6564 004e 6f20 6d65 7373 6167 6520 6f66  ed.No message of
  - 0101400: 2064 6573 6972 6564 2074 7970 6500 4964   desired type.Id
  - 0101410: 656e 7469 6669 6572 2072 656d 6f76 6564  entifier removed
  - 0101420: 004c 696e 6b20 6861 7320 6265 656e 2073  .Link has been s
  - 0101430: 6576 6572 6564 0050 726f 746f 636f 6c20  evered.Protocol 
  - 0101440: 6572 726f 7200 4261 6420 6d65 7373 6167  error.Bad messag
  - 0101450: 6500 4e6f 7420 6120 736f 636b 6574 0044  e.Not a socket.D
  - 0101460: 6573 7469 6e61 7469 6f6e 2061 6464 7265  estination addre
  - 0101470: 7373 2072 6571 7569 7265 6400 4d65 7373  ss required.Mess
  - 0101480: 6167 6520 746f 6f20 6c61 7267 6500 5072  age too large.Pr
  - 0101490: 6f74 6f63 6f6c 2077 726f 6e67 2074 7970  otocol wrong typ
  - 01014a0: 6520 666f 7220 736f 636b 6574 0050 726f  e for socket.Pro
  - 01014b0: 746f 636f 6c20 6e6f 7420 6176 6169 6c61  tocol not availa
  - 01014c0: 626c 6500 5072 6f74 6f63 6f6c 206e 6f74  ble.Protocol not
  - 01014d0: 2073 7570 706f 7274 6564 004e 6f74 2073   supported.Not s
  - 01014e0: 7570 706f 7274 6564 0041 6464 7265 7373  upported.Address
  - 01014f0: 2066 616d 696c 7920 6e6f 7420 7375 7070   family not supp
  - 0101500: 6f72 7465 6420 6279 2070 726f 746f 636f  orted by protoco
  - 0101510: 6c00 4164 6472 6573 7320 6e6f 7420 6176  l.Address not av
  - 0101520: 6169 6c61 626c 6500 4e65 7477 6f72 6b20  ailable.Network 
  - 0101530: 6973 2064 6f77 6e00 4e65 7477 6f72 6b20  is down.Network 
  - 0101540: 756e 7265 6163 6861 626c 6500 436f 6e6e  unreachable.Conn
  - 0101550: 6563 7469 6f6e 2072 6573 6574 2062 7920  ection reset by 
  - 0101560: 6e65 7477 6f72 6b00 436f 6e6e 6563 7469  network.Connecti
  - 0101570: 6f6e 2061 626f 7274 6564 004e 6f20 6275  on aborted.No bu
  - 0101580: 6666 6572 2073 7061 6365 2061 7661 696c  ffer space avail
  - 0101590: 6162 6c65 0053 6f63 6b65 7420 6973 2063  able.Socket is c
  - 01015a0: 6f6e 6e65 6374 6564 0053 6f63 6b65 7420  onnected.Socket 
  - 01015b0: 6e6f 7420 636f 6e6e 6563 7465 6400 4f70  not connected.Op
  - 01015c0: 6572 6174 696f 6e20 616c 7265 6164 7920  eration already 
  - 01015d0: 696e 2070 726f 6772 6573 7300 4f70 6572  in progress.Oper
  - 01015e0: 6174 696f 6e20 696e 2070 726f 6772 6573  ation in progres
  - 01015f0: 7300 5374 616c 6520 6669 6c65 2068 616e  s.Stale file han
  - 0101600: 646c 6500 5175 6f74 6120 6578 6365 6564  dle.Quota exceed
  - 0101610: 6564 004d 756c 7469 686f 7020 6174 7465  ed.Multihop atte
  - 0101620: 6d70 7465 6400 4361 7061 6269 6c69 7469  mpted.Capabiliti
  - 0101630: 6573 2069 6e73 7566 6669 6369 656e 7400  es insufficient.
  - 0101640: 4e6f 2065 7272 6f72 2069 6e66 6f72 6d61  No error informa
  - 0101650: 7469 6f6e 0000 7372 632f 6c69 6261 6c6c  tion..src/liball
  - 0101660: 6f63 2f72 6177 5f76 6563 2e72 7363 6170  oc/raw_vec.rscap
  - 0101670: 6163 6974 7920 6f76 6572 666c 6f77 0000  acity overflow..
  - 0101680: 5616 1000 1700 0000 0903 0000 0500 0000  V...............
  - 0101690: 6000 2e2e 9216 1000 0200 0000 426f 7272  `...........Borr
  - 01016a0: 6f77 4572 726f 7242 6f72 726f 774d 7574  owErrorBorrowMut
  - 01016b0: 4572 726f 7200 0000 5900 0000 0000 0000  Error...Y.......
  - 01016c0: 0100 0000 5a00 0000 3a00 0000 9016 1000  ....Z...:.......
  - 01016d0: 0000 0000 c816 1000 0100 0000 c816 1000  ................
  - 01016e0: 0100 0000 696e 6465 7820 6f75 7420 6f66  ....index out of
  - 01016f0: 2062 6f75 6e64 733a 2074 6865 206c 656e   bounds: the len
  - 0101700: 2069 7320 2062 7574 2074 6865 2069 6e64   is  but the ind
  - 0101710: 6578 2069 7320 0000 e416 1000 2000 0000  ex is ...... ...
  - 0101720: 0417 1000 1200 0000 6361 6c6c 6564 2060  ........called `
  - 0101730: 4f70 7469 6f6e 3a3a 756e 7772 6170 2829  Option::unwrap()
  - 0101740: 6020 6f6e 2061 2060 4e6f 6e65 6020 7661  ` on a `None` va
  - 0101750: 6c75 6573 7263 2f6c 6962 636f 7265 2f6f  luesrc/libcore/o
  - 0101760: 7074 696f 6e2e 7273 5317 1000 1500 0000  ption.rsS.......
  - 0101770: 7d01 0000 1500 0000 9016 1000 0000 0000  }...............
  - 0101780: 5317 1000 1500 0000 a404 0000 0500 0000  S...............
  - 0101790: 3a20 0000 9016 1000 0000 0000 9017 1000  : ..............
  - 01017a0: 0200 0000 7372 632f 6c69 6263 6f72 652f  ....src/libcore/
  - 01017b0: 7265 7375 6c74 2e72 7300 0000 a417 1000  result.rs.......
  - 01017c0: 1500 0000 a404 0000 0500 0000 7372 632f  ............src/
  - 01017d0: 6c69 6263 6f72 652f 736c 6963 652f 6d6f  libcore/slice/mo
  - 01017e0: 642e 7273 696e 6465 7820 206f 7574 206f  d.rsindex  out o
  - 01017f0: 6620 7261 6e67 6520 666f 7220 736c 6963  f range for slic
  - 0101800: 6520 6f66 206c 656e 6774 6820 e417 1000  e of length ....
  - 0101810: 0600 0000 ea17 1000 2200 0000 cc17 1000  ........".......
  - 0101820: 1800 0000 720a 0000 0500 0000 736c 6963  ....r.......slic
  - 0101830: 6520 696e 6465 7820 7374 6172 7473 2061  e index starts a
  - 0101840: 7420 2062 7574 2065 6e64 7320 6174 2000  t  but ends at .
  - 0101850: 2c18 1000 1600 0000 4218 1000 0d00 0000  ,.......B.......
  - 0101860: cc17 1000 1800 0000 780a 0000 0500 0000  ........x.......
  - 0101870: 6174 7465 6d70 7465 6420 746f 2069 6e64  attempted to ind
  - 0101880: 6578 2073 6c69 6365 2075 7020 746f 206d  ex slice up to m
  - 0101890: 6178 696d 756d 2075 7369 7a65 cc17 1000  aximum usize....
  - 01018a0: 1800 0000 7e0a 0000 0500 0000 6173 7365  ....~.......asse
  - 01018b0: 7274 696f 6e20 6661 696c 6564 3a20 6272  rtion failed: br
  - 01018c0: 6f6b 656e 2e69 735f 656d 7074 7928 2973  oken.is_empty()s
  - 01018d0: 7263 2f6c 6962 636f 7265 2f73 7472 2f6c  rc/libcore/str/l
  - 01018e0: 6f73 7379 2e72 7300 cf18 1000 1800 0000  ossy.rs.........
  - 01018f0: 9b00 0000 1100 0000 2973 7263 2f6c 6962  ........)src/lib
  - 0101900: 636f 7265 2f73 7472 2f6d 6f64 2e72 7301  core/str/mod.rs.
  - 0101910: 0101 0101 0101 0101 0101 0101 0101 0101  ................
  - 0101920: 0101 0101 0101 0101 0101 0101 0101 0101  ................
  - 0101930: 0101 0101 0101 0101 0101 0101 0101 0101  ................
  - 0101940: 0101 0101 0101 0101 0101 0101 0101 0101  ................
  - 0101950: 0101 0101 0101 0101 0101 0101 0101 0101  ................
  - 0101960: 0101 0101 0101 0101 0101 0101 0101 0101  ................
  - 0101970: 0101 0101 0101 0101 0101 0101 0101 0101  ................
  - 0101980: 0101 0101 0101 0101 0101 0101 0101 0100  ................
  - 0101990: 0000 0000 0000 0000 0000 0000 0000 0000  ................
  - 01019a0: 0000 0000 0000 0000 0000 0000 0000 0000  ................
  - 01019b0: 0000 0000 0000 0000 0000 0000 0000 0000  ................
  - 01019c0: 0000 0000 0000 0000 0000 0000 0000 0000  ................
  - 01019d0: 0002 0202 0202 0202 0202 0202 0202 0202  ................
  - 01019e0: 0202 0202 0202 0202 0202 0202 0202 0203  ................
  - 01019f0: 0303 0303 0303 0303 0303 0303 0303 0304  ................
  - 0101a00: 0404 0404 0000 0000 0000 0000 0000 005b  ...............[
  - 0101a10: 2e2e 2e5d 6279 7465 2069 6e64 6578 2020  ...]byte index  
  - 0101a20: 6973 206f 7574 206f 6620 626f 756e 6473  is out of bounds
  - 0101a30: 206f 6620 6000 0000 141a 1000 0b00 0000   of `...........
  - 0101a40: 1f1a 1000 1600 0000 9016 1000 0100 0000  ................
  - 0101a50: f918 1000 1600 0000 0408 0000 0900 0000  ................
  - 0101a60: 6265 6769 6e20 3c3d 2065 6e64 2028 203c  begin <= end ( <
  - 0101a70: 3d20 2920 7768 656e 2073 6c69 6369 6e67  = ) when slicing
  - 0101a80: 2060 0000 601a 1000 0e00 0000 6e1a 1000   `..`.......n...
  - 0101a90: 0400 0000 721a 1000 1000 0000 9016 1000  ....r...........
  - 0101aa0: 0100 0000 f918 1000 1600 0000 0808 0000  ................
  - 0101ab0: 0500 0000 2069 7320 6e6f 7420 6120 6368  .... is not a ch
  - 0101ac0: 6172 2062 6f75 6e64 6172 793b 2069 7420  ar boundary; it 
  - 0101ad0: 6973 2069 6e73 6964 6520 2028 6279 7465  is inside  (byte
  - 0101ae0: 7320 2920 6f66 2060 141a 1000 0b00 0000  s ) of `........
  - 0101af0: b41a 1000 2600 0000 da1a 1000 0800 0000  ....&...........
  - 0101b00: e21a 1000 0600 0000 9016 1000 0100 0000  ................
  - 0101b10: f918 1000 1600 0000 1508 0000 0500 0000  ................
  - 0101b20: 5b00 0000 0c00 0000 0400 0000 5c00 0000  [...........\...
  - 0101b30: 5d00 0000 5e00 0000 2020 2020 207b 0a2c  ]...^...     {.,
  - 0101b40: 0a2c 2020 7b20 7d20 7d28 0a28 2c0a 5b00  .,  { } }(.(,.[.
  - 0101b50: 5f00 0000 0400 0000 0400 0000 6000 0000  _...........`...
  - 0101b60: 5d30 7830 3030 3130 3230 3330 3430 3530  ]0x0001020304050
  - 0101b70: 3630 3730 3830 3931 3031 3131 3231 3331  6070809101112131
  - 0101b80: 3431 3531 3631 3731 3831 3932 3032 3132  4151617181920212
  - 0101b90: 3232 3332 3432 3532 3632 3732 3832 3933  2232425262728293
  - 0101ba0: 3033 3133 3233 3333 3433 3533 3633 3733  0313233343536373
  - 0101bb0: 3833 3934 3034 3134 3234 3334 3434 3534  8394041424344454
  - 0101bc0: 3634 3734 3834 3935 3035 3135 3235 3335  6474849505152535
  - 0101bd0: 3435 3535 3635 3735 3835 3936 3036 3136  4555657585960616
  - 0101be0: 3236 3336 3436 3536 3636 3736 3836 3937  2636465666768697
  - 0101bf0: 3037 3137 3237 3337 3437 3537 3637 3737  0717273747576777
  - 0101c00: 3837 3938 3038 3138 3238 3338 3438 3538  8798081828384858
  - 0101c10: 3638 3738 3838 3939 3039 3139 3239 3339  6878889909192939
  - 0101c20: 3439 3539 3639 3739 3839 3900 5f00 0000  49596979899._...
  - 0101c30: 0400 0000 0400 0000 6100 0000 6200 0000  ........a...b...
  - 0101c40: 6300 0000 7372 632f 6c69 6263 6f72 652f  c...src/libcore/
  - 0101c50: 666d 742f 6d6f 642e 7273 0000 441c 1000  fmt/mod.rs..D...
  - 0101c60: 1600 0000 5304 0000 2800 0000 441c 1000  ....S...(...D...
  - 0101c70: 1600 0000 5e04 0000 2800 0000 7372 632f  ....^...(...src/
  - 0101c80: 6c69 6263 6f72 652f 756e 6963 6f64 652f  libcore/unicode/
  - 0101c90: 626f 6f6c 5f74 7269 652e 7273 7c1c 1000  bool_trie.rs|...
  - 0101ca0: 2000 0000 2700 0000 1900 0000 7c1c 1000   ...'.......|...
  - 0101cb0: 2000 0000 2800 0000 2000 0000 7c1c 1000   ...(... ...|...
  - 0101cc0: 2000 0000 2a00 0000 1900 0000 7c1c 1000   ...*.......|...
  - 0101cd0: 2000 0000 2b00 0000 1800 0000 7c1c 1000   ...+.......|...
  - 0101ce0: 2000 0000 2c00 0000 2000 0000 0001 0305   ...,... .......
  - 0101cf0: 0506 0603 0706 0808 0911 0a1c 0b19 0c14  ................
  - 0101d00: 0d12 0e0d 0f04 1003 1212 1309 1601 1705  ................
  - 0101d10: 1802 1903 1a07 1c02 1d01 1f16 2003 2b04  ............ .+.
  - 0101d20: 2c02 2d0b 2e01 3003 3102 3201 a702 a902  ,.-...0.1.2.....
  - 0101d30: aa04 ab08 fa02 fb05 fd04 fe03 ff09 ad78  ...............x
  - 0101d40: 798b 8da2 3057 588b 8c90 1c1d dd0e 0f4b  y...0WX........K
  - 0101d50: 4cfb fc2e 2f3f 5c5d 5fb5 e284 8d8e 9192  L.../?\]_.......
  - 0101d60: a9b1 babb c5c6 c9ca dee4 e5ff 0004 1112  ................
  - 0101d70: 2931 3437 3a3b 3d49 4a5d 848e 92a9 b1b4  )147:;=IJ]......
  - 0101d80: babb c6ca cecf e4e5 0004 0d0e 1112 2931  ..............)1
  - 0101d90: 343a 3b45 4649 4a5e 6465 8491 9b9d c9ce  4:;EFIJ^de......
  - 0101da0: cf0d 1129 4549 5764 658d 91a9 b4ba bbc5  ...)EIWde.......
  - 0101db0: c9df e4e5 f004 0d11 4549 6465 8081 84b2  ........EIde....
  - 0101dc0: bcbe bfd5 d7f0 f183 858b a4a6 bebf c5c7  ................
  - 0101dd0: cecf dadb 4898 bdcd c6ce cf49 4e4f 5759  ....H......INOWY
  - 0101de0: 5e5f 898e 8fb1 b6b7 bfc1 c6c7 d711 1617  ^_..............
  - 0101df0: 5b5c f6f7 feff 800d 6d71 dedf 0e0f 1f6e  [\......mq.....n
  - 0101e00: 6f1c 1d5f 7d7e aeaf bbbc fa16 171e 1f46  o.._}~.........F
  - 0101e10: 474e 4f58 5a5c 5e7e 7fb5 c5d4 d5dc f0f1  GNOXZ\^~........
  - 0101e20: f572 738f 7475 9697 2f5f 262e 2fa7 afb7  .rs.tu../_&./...
  - 0101e30: bfc7 cfd7 df9a 4097 9830 8f1f c0c1 ceff  ......@..0......
  - 0101e40: 4e4f 5a5b 0708 0f10 272f eeef 6e6f 373d  NOZ[....'/..no7=
  - 0101e50: 3f42 4590 91fe ff53 6775 c8c9 d0d1 d8d9  ?BE....Sgu......
  - 0101e60: e7fe ff00 205f 2282 df04 8244 081b 0406  .... _"....D....
  - 0101e70: 1181 ac0e 80ab 351e 1580 e003 1908 0104  ......5.........
  - 0101e80: 2f04 3404 0703 0107 0607 110a 500f 1207  /.4.........P...
  - 0101e90: 5508 0204 1c0a 0903 0803 0703 0203 0303  U...............
  - 0101ea0: 0c04 0503 0b06 010e 1505 3a03 1107 0605  ..........:.....
  - 0101eb0: 1007 5707 0207 150d 5004 4303 2d03 0104  ..W.....P.C.-...
  - 0101ec0: 1106 0f0c 3a04 1d25 5f20 6d04 6a25 80c8  ....:..%_ m.j%..
  - 0101ed0: 0582 b003 1a06 82fd 0359 0715 0b17 0914  .........Y......
  - 0101ee0: 0c14 0c6a 060a 061a 0659 072b 0546 0a2c  ...j.....Y.+.F.,
  - 0101ef0: 040c 0401 0331 0b2c 041a 060b 0380 ac06  .....1.,........
  - 0101f00: 0a06 1f41 4c04 2d03 7408 3c03 0f03 3c07  ...AL.-.t.<...<.
  - 0101f10: 3808 2b05 82ff 1118 082f 112d 0320 1021  8.+....../.-. .!
  - 0101f20: 0f80 8c04 8297 190b 1588 9405 2f05 3b07  ............/.;.
  - 0101f30: 020e 1809 80b0 3074 0c80 d61a 0c05 80ff  ......0t........
  - 0101f40: 0580 b605 240c 9bc6 0ad2 3010 848d 0337  ....$.....0....7
  - 0101f50: 0981 5c14 80b8 0880 c730 3504 0a06 3808  ..\......05...8.
  - 0101f60: 4608 0c06 740b 1e03 5a04 5909 8083 181c  F...t...Z.Y.....
  - 0101f70: 0a16 0948 0880 8a06 aba4 0c17 0431 a104  ...H.........1..
  - 0101f80: 81da 2607 0c05 0580 a511 816d 1078 282a  ..&........m.x(*
  - 0101f90: 064c 0480 8d04 80be 031b 030f 0d00 0601  .L..............
  - 0101fa0: 0103 0104 0208 0809 020a 050b 0210 0111  ................
  - 0101fb0: 0412 0513 1114 0215 0217 0219 041c 051d  ................
  - 0101fc0: 0824 016a 036b 02bc 02d1 02d4 0cd5 09d6  .$.j.k..........
  - 0101fd0: 02d7 02da 01e0 05e1 02e8 02ee 20f0 04f9  ............ ...
  - 0101fe0: 06fa 020c 273b 3e4e 4f8f 9e9e 9f06 0709  ....';>NO.......
  - 0101ff0: 363d 3e56 f3d0 d104 1418 3637 5657 bd35  6=>V......67VW.5
  - 0102000: cecf e012 8789 8e9e 040d 0e11 1229 3134  .............)14
  - 0102010: 3a45 4649 4a4e 4f64 655a 5cb6 b71b 1ca8  :EFIJNOdeZ\.....
  - 0102020: a9d8 d909 3790 91a8 070a 3b3e 6669 8f92  ....7.....;>fi..
  - 0102030: 6f5f eeef 5a62 9a9b 2728 559d a0a1 a3a4  o_..Zb..'(U.....
  - 0102040: a7a8 adba bcc4 060b 0c15 1d3a 3f45 51a6  ...........:?EQ.
  - 0102050: a7cc cda0 0719 1a22 253e 3fc5 c604 2023  ......."%>?... #
  - 0102060: 2526 2833 383a 484a 4c50 5355 5658 5a5c  %&(38:HJLPSUVXZ\
  - 0102070: 5e60 6365 666b 7378 7d7f 8aa4 aaaf b0c0  ^`cefksx}.......
  - 0102080: d00c 72a3 a4cb cc6e 6f5e 227b 0503 042d  ..r....no^"{...-
  - 0102090: 0365 0401 2f2e 8082 1d03 310f 1c04 2409  .e../.....1...$.
  - 01020a0: 1e05 2b05 4404 0e2a 80aa 0624 0424 0428  ..+.D..*...$.$.(
  - 01020b0: 0834 0b01 8090 8137 0916 0a08 8098 3903  .4.....7......9.
  - 01020c0: 6308 0930 1605 2103 1b05 0140 3804 4b05  c..0..!....@8.K.
  - 01020d0: 2f04 0a07 0907 4020 2704 0c09 3603 3a05  /.....@ '...6.:.
  - 01020e0: 1a07 040c 0750 4937 330d 3307 2e08 0a81  .....PI73.3.....
  - 01020f0: 261f 8081 2808 2a80 8617 094e 041e 0f43  &...(.*....N...C
  - 0102100: 0e19 070a 0647 0927 0975 0b3f 412a 063b  .....G.'.u.?A*.;
  - 0102110: 050a 0651 0601 0510 0305 808b 6020 4808  ...Q........` H.
  - 0102120: 0a80 a65e 2245 0b0a 060d 1339 070a 362c  ...^"E.....9..6,
  - 0102130: 0410 80c0 3c64 530c 0180 a045 1b48 0853  ....<dS....E.H.S
  - 0102140: 1d39 8107 460a 1d03 4749 3703 0e08 0a06  .9..F...GI7.....
  - 0102150: 3907 0a81 3619 80c7 320d 839b 6675 0b80  9...6...2...fu..
  - 0102160: c48a bc84 2f8f d182 47a1 b982 3907 2a04  ..../...G...9.*.
  - 0102170: 0260 260a 460a 2805 1382 b05b 654b 0439  .`&.F.(....[eK.9
  - 0102180: 0711 4004 1c97 f808 82f3 a50d 811f 3103  ..@...........1.
  - 0102190: 1104 0881 8c89 046b 050d 0309 0710 9360  .......k.......`
  - 01021a0: 80f6 0a73 086e 1746 809a 140c 5709 1980  ...s.n.F....W...
  - 01021b0: 8781 4703 8542 0f15 8550 2b80 d52d 031a  ..G..B...P+..-..
  - 01021c0: 0402 8170 3a05 0185 0080 d729 4c04 0a04  ...p:......)L...
  - 01021d0: 0283 1144 4c3d 80c2 3c06 0104 5505 1b34  ...DL=..<...U..4
  - 01021e0: 0281 0e2c 0464 0c56 0a0d 035d 033d 391d  ...,.d.V...].=9.
  - 01021f0: 0d2c 0409 0702 0e06 809a 83d6 0a0d 030b  .,..............
  - 0102200: 0574 0c59 070c 140c 0438 080a 0628 081e  .t.Y.....8...(..
  - 0102210: 5277 0331 0380 a60c 1404 0305 030d 0685  Rw.1............
  - 0102220: 6a00 0000 0000 0000 0000 c0fb ef3e 0000  j............>..
  - 0102230: 0000 000e 0000 0000 0000 0000 0000 0000  ................
  - 0102240: 0000 f8ff fbff ffff 0700 0000 0000 0014  ................
  - 0102250: fe21 fe00 0c00 0000 0200 0000 0000 0050  .!.............P
  - 0102260: 1e20 8000 0c00 0040 0600 0000 0000 0010  . .....@........
  - 0102270: 8639 0200 0000 2300 be21 0000 0c00 00fc  .9....#..!......
  - 0102280: 0200 0000 0000 00d0 1e20 c000 0c00 0000  ......... ......
  - 0102290: 0400 0000 0000 0040 0120 8000 0000 0000  .......@. ......
  - 01022a0: 1100 0000 0000 00c0 c13d 6000 0c00 0000  .........=`.....
  - 01022b0: 0200 0000 0000 0090 4430 6000 0c00 0000  ........D0`.....
  - 01022c0: 0300 0000 0000 0058 1e20 8000 0c00 0000  .......X. ......
  - 01022d0: 0084 5c80 0000 0000 0000 0000 0000 f207  ..\.............
  - 01022e0: 807f 0000 0000 0000 0000 0000 0000 f21f  ................
  - 01022f0: 003f 0000 0000 0000 0000 0003 0000 a002  .?..............
  - 0102300: 0000 0000 0000 fe7f dfe0 fffe ffff ff1f  ................
  - 0102310: 4000 0000 0000 0000 0000 0000 00e0 fd66  @..............f
  - 0102320: 0000 00c3 0100 1e00 6420 0020 0000 0000  ........d . ....
  - 0102330: 0000 00e0 0000 0000 0000 1c00 0000 1c00  ................
  - 0102340: 0000 0c00 0000 0c00 0000 0000 0000 b03f  ...............?
  - 0102350: 40fe 0f20 0000 0000 0038 0000 0000 0000  @.. .....8......
  - 0102360: 6000 0000 0002 0000 0000 0000 8701 040e  `...............
  - 0102370: 0000 8009 0000 0000 0000 407f e51f f89f  ..........@.....
  - 0102380: 0000 0000 0000 ff7f 0f00 0000 0000 f017  ................
  - 0102390: 0400 0000 00f8 0f00 0300 0000 3c3b 0000  ............<;..
  - 01023a0: 0000 0000 40a3 0300 0000 0000 00f0 cf00  ....@...........
  - 01023b0: 0000 f7ff fd21 1003 ffff ffff ffff fffb  .....!..........
  - 01023c0: 0010 0000 0000 0000 0000 ffff ffff 0100  ................
  - 01023d0: 0000 0000 0080 0300 0000 0000 0000 0080  ................
  - 01023e0: 0000 0000 ffff ffff 0000 0000 00fc 0000  ................
  - 01023f0: 0000 0006 0000 0000 0000 0000 0080 f73f  ...............?
  - 0102400: 0000 00c0 0000 0000 0000 0000 0000 0300  ................
  - 0102410: 4408 0000 6000 0000 3000 0000 ffff 0380  D...`...0.......
  - 0102420: 0000 0000 c03f 0000 80ff 0300 0000 0000  .....?..........
  - 0102430: 0700 0000 0000 c833 0000 0000 2000 0000  .......3.... ...
  - 0102440: 0000 0000 007e 6600 0810 0000 0000 0010  .....~f.........
  - 0102450: 0000 0000 0000 9dc1 0200 0000 0030 4000  .............0@.
  - 0102460: 0000 0000 2021 0000 0000 0040 0000 0000  .... !.....@....
  - 0102470: ffff 0000 ffff 0000 0000 0000 0000 0001  ................
  - 0102480: 0000 0002 0003 0000 0000 0000 0000 0000  ................
  - 0102490: 0000 0000 0000 0000 0000 0000 0000 0000  ................
  - 01024a0: 0400 0005 0000 0000 0000 0000 0600 0000  ................
  - 01024b0: 0000 0000 0007 0000 0809 0a00 0b0c 0d0e  ................
  - 01024c0: 0f00 0010 1112 0000 1314 1516 0000 1718  ................
  - 01024d0: 191a 1b00 1c00 0000 1d00 0000 0000 001e  ................
  - 01024e0: 1f20 2100 0000 0000 2200 2300 2425 2600  . !.....".#.$%&.
  - 01024f0: 0000 0027 0000 0000 0000 0000 0000 0000  ...'............
  - 0102500: 0000 0000 0000 0000 0000 0000 0000 0000  ................
  - 0102510: 0000 0000 0000 0000 0000 0000 0000 0000  ................
  - 0102520: 0000 0000 0000 0000 0000 0000 0000 0000  ................
  - 0102530: 0000 0000 0000 0000 0000 0000 0000 0000  ................
  - 0102540: 0000 0000 0000 0000 0000 0000 0000 0000  ................
  - 0102550: 0000 0000 0000 0000 0000 0000 0000 0000  ................
  - 0102560: 0000 0028 2900 0000 0000 0000 0000 0000  ...()...........
  - 0102570: 0000 0000 002a 2b00 0000 0000 0000 0000  .....*+.........
  - 0102580: 0000 0000 0000 0000 0000 0000 0000 0000  ................
  - 0102590: 0000 0000 0000 0000 0000 0000 0000 0000  ................
  - 01025a0: 0000 0000 0000 0000 0000 2c00 0000 0000  ..........,.....
  - 01025b0: 0000 0000 0000 0000 0000 0000 002d 2e00  .............-..
  - 01025c0: 002f 0000 0000 0000 0000 0000 0000 0000  ./..............
  - 01025d0: 0000 0000 0000 0000 0000 0000 0000 0000  ................
  - 01025e0: 3031 3200 0000 0000 0000 0000 0000 0000  012.............
  - 01025f0: 0000 0000 0000 0000 3300 0000 2900 0000  ........3...)...
  - 0102600: 0000 0034 0000 0000 0000 0000 0000 0000  ...4............
  - 0102610: 0000 0000 0000 0000 0000 0035 0036 0000  ...........5.6..
  - 0102620: 0000 0000 0000 0000 0000 0000 0000 0000  ................
  - 0102630: 0000 0000 0000 0000 3738 0000 3838 3839  ........78..8889
  - 0102640: 0000 0000 0000 0000 0000 0000 0000 0000  ................
  - 0102650: 0000 0000 0000 0000 0000 0000 0000 0000  ................
  - 0102660: 0000 0000 0000 0000 0000 0000 0000 0000  ................
  - 0102670: 0000 0000 0000 0000 0000 0000 0000 0000  ................
  - 0102680: 0000 0000 0000 0020 0000 0000 0100 0000  ....... ........
  - 0102690: 0000 0000 0000 c007 6ef0 0000 0000 0087  ........n.......
  - 01026a0: 0000 0000 6000 0000 0000 0000 f000 0000  ....`...........
  - 01026b0: c0ff 0100 0000 0000 0200 0000 0000 00ff  ................
  - 01026c0: 7f00 0000 0000 0080 0300 0000 0000 7806  ..............x.
  - 01026d0: 0700 0000 80ef 1f00 0000 0000 0000 0800  ................
  - 01026e0: 0300 0000 0000 c07f 001e 0000 0000 0000  ................
  - 01026f0: 0000 0000 0080 d340 0000 0080 f807 0000  .......@........
  - 0102700: 0300 0000 0000 0058 0100 8000 c01f 1f00  .......X........
  - 0102710: 0000 0000 0000 00ff 5c00 0040 0000 0000  ........\..@....
  - 0102720: 0000 0000 0000 f9a5 0d00 0000 0000 0000  ................
  - 0102730: 0000 0000 0080 3cb0 0100 0030 0000 0000  ......<....0....
  - 0102740: 0000 0000 0000 f8a7 0100 0000 0000 0000  ................
  - 0102750: 0000 0000 0028 bf00 0000 00e0 bc0f 0000  .....(..........
  - 0102760: 0000 0000 0080 ff06 0000 f00c 0100 0000  ................
  - 0102770: fe07 0000 0000 f879 8000 7e0e 0000 0000  .......y..~.....
  - 0102780: 00fc 7f03 0000 0000 0000 0000 0000 7fbf  ................
  - 0102790: 0000 fcff fffc 6d00 0000 0000 0000 7eb4  ......m.......~.
  - 01027a0: bf00 0000 0000 0000 0000 a300 0000 0000  ................
  - 01027b0: 0000 0000 0000 1800 0000 0000 0000 1f00  ................
  - 01027c0: 0000 0000 0000 7f00 0080 0000 0000 0000  ................
  - 01027d0: 0080 0700 0000 0000 0000 0060 0000 0000  ...........`....
  - 01027e0: 0000 0000 a0c3 07f8 e70f 0000 003c 0000  .............<..
  - 01027f0: 1c00 0000 0000 0000 ffff ffff ffff 7ff8  ................
  - 0102800: ffff ffff ff1f 2000 1000 00f8 feff 0000  ...... .........
  - 0102810: 7fff fff9 db07 0000 0000 0000 00f0 0000  ................
  - 0102820: 0000 7f00 0000 0000 f007 0000 0000 0000  ................
  - 0102830: 0000 0000 ffff ffff ffff ffff ffff ffff  ................
  - 0102840: ffff ffff ffff 0000 0000 0000 0000 0000  ................
  - 0102850: 0000 0000 0000 0000 0000 0000 0000 0000  ................
  - 0102860: 0000 0000 0000 0000 0000 0000 0000 0000  ................
  - 0102870: 0000 0000 0000 0000 0000 0000 0000 0000  ................
  - 0102880: 0000 0000 0000 0000 0000 0000 0000 0000  ................
  - 0102890: 0000 0000 0000 0000 0000 0000 0000 0000  ................
  - 01028a0: 0000 0000 0000 0000 ffff ffff ffff ffff  ................
  - 01028b0: ffff ffff ffff 0000 0000 0000 0000 0000  ................
  - 01028c0: 0000 0000 0000 0000 0000 0000 0000 0000  ................
  - 01028d0: 0000 0000 0000 0000 f803 0000 0000 0000  ................
  - 01028e0: 0000 0000 0000 0000 0000 0000 0000 0000  ................
  - 01028f0: 0000 0000 0000 0000 0000 feff ffff ffbf  ................
  - 0102900: b600 0000 0000 0000 0000 ff07 0000 0000  ................
  - 0102910: 00f8 ffff 0000 0100 0000 0000 0000 0000  ................
  - 0102920: 0000 c09f 9f3d 0000 0000 0200 0000 ffff  .....=..........
  - 0102930: ff07 0000 0000 0000 0000 0000 c0ff 0100  ................
  - 0102940: 0000 0000 00f8 0f20 2822 1000 4a00 0000  ....... ("..J...
  - 0102950: 7824 1000 0002 0000 7826 1000 3a00 0000  x$......x&..:...
  - 0102960: 0001 0203 0405 0607 0809 080a 0b0c 0d0e  ................
  - 0102970: 0f10 1112 1314 0215 1617 1819 1a1b 1c1d  ................
  - 0102980: 1e1f 2002 0202 0202 0202 0202 0221 0202  .. ..........!..
  - 0102990: 0202 0202 0202 0202 0202 0202 2223 2425  ............"#$%
  - 01029a0: 2602 2702 2802 0202 292a 2b02 2c2d 2e2f  &.'.(...)*+.,-./
  - 01029b0: 3002 0231 0202 0232 0202 0202 0202 0202  0..1...2........
  - 01029c0: 3302 0234 0202 0202 0202 0202 0202 0202  3..4............
  - 01029d0: 0202 0202 0202 0202 0202 0202 0202 0202  ................
  - 01029e0: 0202 0202 0202 0202 0202 0202 0202 0202  ................
  - 01029f0: 0202 0235 0236 0237 0202 0202 0202 0202  ...5.6.7........
  - 0102a00: 3802 3902 0202 0202 0202 0202 0202 0202  8.9.............
  - 0102a10: 0202 0202 0202 0202 0202 0202 0202 0202  ................
  - 0102a20: 0202 0202 0202 0202 0202 0202 0202 0202  ................
  - 0102a30: 0202 0202 0202 0202 0202 0202 0202 0202  ................
  - 0102a40: 0202 0202 0202 0202 0202 0202 0202 0202  ................
  - 0102a50: 0202 0202 0202 0202 0202 0202 0202 0202  ................
  - 0102a60: 0202 0202 0202 0202 0202 0202 0202 0202  ................
  - 0102a70: 0202 0202 0202 0202 0202 0202 0202 0202  ................
  - 0102a80: 0202 0202 0202 0202 0202 0202 0202 0202  ................
  - 0102a90: 0202 0202 0202 0202 0202 0202 0202 0202  ................
  - 0102aa0: 0202 0202 0202 0202 0202 0202 0202 0202  ................
  - 0102ab0: 0202 0202 0202 0202 0202 0202 0202 0202  ................
  - 0102ac0: 0202 0202 0202 0202 0202 0202 0202 0202  ................
  - 0102ad0: 0202 0202 0202 0202 0202 0202 0202 0202  ................
  - 0102ae0: 0202 0202 0202 0202 0202 0202 0202 0202  ................
  - 0102af0: 0202 0202 0202 0202 0202 0202 0202 0202  ................
  - 0102b00: 0202 0202 0202 0202 0202 0202 0202 0202  ................
  - 0102b10: 0202 0202 0202 0202 0202 0202 0202 0202  ................
  - 0102b20: 0202 0202 0202 0202 0202 0202 0202 0202  ................
  - 0102b30: 0202 0202 0202 0202 0202 0202 0202 0202  ................
  - 0102b40: 0202 0202 0202 0202 0202 0202 0202 0202  ................
  - 0102b50: 0202 0202 0202 0202 0202 0202 0202 0202  ................
  - 0102b60: 0202 0202 0202 0202 0202 0202 0202 0202  ................
  - 0102b70: 0202 0202 0202 0202 0202 0202 0202 0202  ................
  - 0102b80: 0202 0202 0202 0202 0202 0202 0202 0202  ................
  - 0102b90: 0202 0202 0202 0202 0202 0202 0202 0202  ................
  - 0102ba0: 0202 0202 0202 0202 0202 0202 0202 0202  ................
  - 0102bb0: 0202 0202 0202 0202 0202 0202 0202 0202  ................
  - 0102bc0: 0202 0202 0202 0202 0202 0202 0202 0202  ................
  - 0102bd0: 0202 0202 0202 0202 023a 3b3c 0202 0202  .........:;<....
  - 0102be0: 3d02 023e 3f40 4142 4344 4546 0202 0247  =..>?@ABCDEF...G
  - 0102bf0: 0202 0202 0202 0202 0202 0202 0202 0202  ................
  - 0102c00: 0202 0202 0202 0202 0202 0202 0202 0202  ................
  - 0102c10: 0202 0202 0202 0202 0202 0202 0202 0202  ................
  - 0102c20: 0202 0202 0202 0202 0202 0202 0202 0202  ................
  - 0102c30: 0202 0202 0202 0202 0202 0202 0202 0202  ................
  - 0102c40: 0202 0202 0202 0202 0202 0202 0202 0202  ................
  - 0102c50: 0202 0202 0202 0202 0202 0202 0202 0202  ................
  - 0102c60: 0202 0202 0202 0202 0202 0202 0202 0202  ................
  - 0102c70: 0202 0202 0202 0202 0202 0202 0202 0202  ................
  - 0102c80: 0202 0202 0202 0202 0202 0202 0202 0202  ................
  - 0102c90: 0202 0202 0202 0202 0202 0202 0202 0202  ................
  - 0102ca0: 0202 0202 0202 0202 0202 0202 0202 0202  ................
  - 0102cb0: 0202 0202 0202 0202 0202 0202 0202 0202  ................
  - 0102cc0: 0202 0202 0202 0202 0202 0202 0202 0202  ................
  - 0102cd0: 0202 0202 0202 0202 0202 0202 0202 0202  ................
  - 0102ce0: 0202 0202 0202 0202 0202 0202 0202 0202  ................
  - 0102cf0: 0202 0202 0202 0202 0202 0202 0202 0202  ................
  - 0102d00: 0202 0202 0202 0202 0202 0202 0202 0202  ................
  - 0102d10: 0202 0202 0202 0202 0202 0202 0202 0202  ................
  - 0102d20: 0202 0202 0202 0202 0202 0202 4802 0202  ............H...
  - 0102d30: 0202 0202 0202 0202 4902 0202 0202 3b02  ........I.....;.
  - 0102d40: 0001 0202 0202 0302 0202 0204 0205 0602  ................
  - 0102d50: 0202 0202 0202 0202 0202 0202 0202 0202  ................
  - 0102d60: 0202 0202 0202 0202 0202 0202 0202 0202  ................
  - 0102d70: 0202 0202 0202 0202 0202 0202 0202 0202  ................
  - 0102d80: 0202 0202 0202 0202 0202 0202 0202 0202  ................
  - 0102d90: 0202 0202 0202 0202 0202 0202 0202 0202  ................
  - 0102da0: 0202 0202 0202 0202 0202 0202 0202 0202  ................
  - 0102db0: 0202 0202 0202 0202 0202 0202 0202 0202  ................
  - 0102dc0: 0202 0202 0202 0202 0202 0202 0202 0202  ................
  - 0102dd0: 0202 0202 0202 0202 0202 0202 0202 0202  ................
  - 0102de0: 0202 0202 0202 0202 0202 0202 0202 0202  ................
  - 0102df0: 0202 0202 0202 0202 0202 0202 0202 0202  ................
  - 0102e00: 0202 0202 0202 0202 0202 0202 0202 0202  ................
  - 0102e10: 0702 0202 0202 0202 0202 0202 0202 0202  ................
  - 0102e20: 0202 0202 0202 0202 0202 0202 0202 0202  ................
  - 0102e30: 0202 0202 0202 0202 0202 0202 0202 0202  ................
  - 0102e40: 5f00 0000 0400 0000 0400 0000 6400 0000  _...........d...
  - 0102e50: 536f 6d65 4e6f 6e65 5574 6638 4572 726f  SomeNoneUtf8Erro
  - 0102e60: 7276 616c 6964 5f75 705f 746f 6572 726f  rvalid_up_toerro
  - 0102e70: 725f 6c65 6e00 0000 5f00 0000 0400 0000  r_len..._.......
  - 0102e80: 0400 0000 6500 0000                      ....e...
 - segment[1] size=16 - init i32=1060488
  - 0102e88: 0100 0000 0000 0000 0100 0000 f430 1000  .............0..
 - segment[2] size=636 - init i32=1060504
  - 0102e98: 0000 0000 0000 0000 0000 0000 0000 0000  ................
  - 0102ea8: 0000 0000 0000 0000 0000 0000 0000 0000  ................
  - 0102eb8: 0000 0000 0000 0000 0000 0000 0000 0000  ................
  - 0102ec8: 0000 0000 0000 0000 0000 0000 0000 0000  ................
  - 0102ed8: 0000 0000 0000 0000 0000 0000 0000 0000  ................
  - 0102ee8: 0000 0000 0000 0000 0000 0000 0000 0000  ................
  - 0102ef8: 0000 0000 0000 0000 0000 0000 0000 0000  ................
  - 0102f08: 0000 0000 0000 0000 0000 0000 0000 0000  ................
  - 0102f18: 0000 0000 0000 0000 0000 0000 0000 0000  ................
  - 0102f28: 0000 0000 0000 0000 0000 0000 0000 0000  ................
  - 0102f38: 0000 0000 0000 0000 0000 0000 0000 0000  ................
  - 0102f48: 0000 0000 0000 0000 0000 0000 0000 0000  ................
  - 0102f58: 0000 0000 0000 0000 0000 0000 0000 0000  ................
  - 0102f68: 0000 0000 0000 0000 0000 0000 0000 0000  ................
  - 0102f78: 0000 0000 0000 0000 0000 0000 0000 0000  ................
  - 0102f88: 0000 0000 0000 0000 0000 0000 0000 0000  ................
  - 0102f98: 0000 0000 0000 0000 0000 0000 0000 0000  ................
  - 0102fa8: 0000 0000 0000 0000 0000 0000 0000 0000  ................
  - 0102fb8: 0000 0000 0000 0000 0000 0000 0000 0000  ................
  - 0102fc8: 0000 0000 0000 0000 0000 0000 0000 0000  ................
  - 0102fd8: 0000 0000 0000 0000 0000 0000 0000 0000  ................
  - 0102fe8: 0000 0000 0000 0000 0000 0000 0000 0000  ................
  - 0102ff8: 0000 0000 0000 0000 0000 0000 0000 0000  ................
  - 0103008: 0000 0000 0000 0000 0000 0000 0000 0000  ................
  - 0103018: 0000 0000 0000 0000 0000 0000 0000 0000  ................
  - 0103028: 0000 0000 0000 0000 0000 0000 0000 0000  ................
  - 0103038: 0000 0000 0000 0000 0000 0000 0000 0000  ................
  - 0103048: 0000 0000 0000 0000 0000 0000 0000 0000  ................
  - 0103058: 0000 0000 0000 0000 0000 0000 0000 0000  ................
  - 0103068: 0000 0000 0000 0000 0000 0000 0000 0000  ................
  - 0103078: 0000 0000 0000 0000 0000 0000 0000 0000  ................
  - 0103088: 0000 0000 0000 0000 0000 0000 0000 0000  ................
  - 0103098: 0000 0000 0000 0000 0000 0000 0000 0000  ................
  - 01030a8: 0000 0000 0000 0000 0000 0000 0000 0000  ................
  - 01030b8: 0000 0000 0000 0000 0000 0000 0000 0000  ................
  - 01030c8: 0000 0000 0000 0000 0000 0000 0000 0000  ................
  - 01030d8: 0000 0000 0000 0000 0000 0000 0000 0000  ................
  - 01030e8: 0000 0000 0000 0000 0000 0000 0000 0000  ................
  - 01030f8: 0000 0000 0000 0000 0000 0000 0000 0000  ................
  - 0103108: 0000 0000 0000 0000 0000 0000            ............
Custom:
 - name: ".debug_info"
Custom:
 - name: ".debug_macinfo"
Custom:
 - name: ".debug_pubtypes"
Custom:
 - name: ".debug_ranges"
Custom:
 - name: ".debug_aranges"
Custom:
 - name: ".debug_abbrev"
Custom:
 - name: ".debug_line"
Custom:
 - name: ".debug_str"
Custom:
 - name: ".debug_pubnames"
Custom:
 - name: "name"
 - func[0] <__wasi_proc_exit>
 - func[1] <args_get>
 - func[2] <args_sizes_get>
 - func[3] <fd_write>
 - func[4] <__wasi_fd_prestat_get>
 - func[5] <__wasi_fd_prestat_dir_name>
 - func[6] <__wasi_environ_sizes_get>
 - func[7] <__wasi_environ_get>
 - func[8] <__wasm_call_ctors>
 - func[9] <_start>
 - func[10] <_ZN3std2rt10lang_start28_$u7b$$u7b$closure$u7d$$u7d$17hcf0a53e73a737b14E>
 - func[11] <_ZN4core3ops8function6FnOnce40call_once$u7b$$u7b$vtable.shim$u7d$$u7d$17h7181aab030b356c7E>
 - func[12] <_ZN4core3ptr18real_drop_in_place17h5b9eb712c953141eE>
 - func[13] <_ZN5alloc7raw_vec19RawVec$LT$T$C$A$GT$7reserve17ha2198ae13467cc95E>
 - func[14] <_ZN4core3fmt3num52_$LT$impl$u20$core..fmt..Debug$u20$for$u20$isize$GT$3fmt17hf4e921414d427e32E>
 - func[15] <_ZN4main4leaf17he80d23a2a9f2228bE>
 - func[16] <_ZN4main12intermediate17h1a902bac6af2874cE>
 - func[17] <_ZN4main4main17h9e0ea2b04575dfdbE>
 - func[18] <__original_main>
 - func[19] <main>
 - func[20] <_ZN4core5slice29_$LT$impl$u20$$u5b$T$u5d$$GT$15copy_from_slice17h9c08b7267d289810E>
 - func[21] <_ZN42_$LT$$RF$T$u20$as$u20$core..fmt..Debug$GT$3fmt17h97a4b0741912e1acE>
 - func[22] <_ZN44_$LT$$RF$T$u20$as$u20$core..fmt..Display$GT$3fmt17hcb50ccd46cfffa86E>
 - func[23] <_ZN52_$LT$$BP$const$u20$T$u20$as$u20$core..fmt..Debug$GT$3fmt17h36ad9990371e35ecE>
 - func[24] <_ZN52_$LT$$BP$const$u20$T$u20$as$u20$core..fmt..Debug$GT$3fmt17h9743d9e05b4bdf6eE>
 - func[25] <__rust_alloc>
 - func[26] <__rust_dealloc>
 - func[27] <__rust_realloc>
 - func[28] <_ZN36_$LT$T$u20$as$u20$core..any..Any$GT$7type_id17h0f8d2bd32519b0bcE>
 - func[29] <_ZN36_$LT$T$u20$as$u20$core..any..Any$GT$7type_id17h168fc26cbdda1442E>
 - func[30] <_ZN36_$LT$T$u20$as$u20$core..any..Any$GT$7type_id17h5d6a88253efd5b28E>
 - func[31] <_ZN73_$LT$std..sys_common..os_str_bytes..Slice$u20$as$u20$core..fmt..Debug$GT$3fmt17h4065989a45dde40cE>
 - func[32] <_ZN42_$LT$$RF$T$u20$as$u20$core..fmt..Debug$GT$3fmt17h33e9d5b249d20379E>
 - func[33] <_ZN42_$LT$$RF$T$u20$as$u20$core..fmt..Debug$GT$3fmt17h9153e35d1f393cc8E>
 - func[34] <_ZN42_$LT$$RF$T$u20$as$u20$core..fmt..Debug$GT$3fmt17hf6db0e1716810508E>
 - func[35] <_ZN44_$LT$$RF$T$u20$as$u20$core..fmt..Display$GT$3fmt17hcd40a1afa9d9ce57E>
 - func[36] <_ZN44_$LT$$RF$T$u20$as$u20$core..fmt..Display$GT$3fmt17hcec0264094fa939fE>
 - func[37] <_ZN45_$LT$$RF$T$u20$as$u20$core..fmt..UpperHex$GT$3fmt17h56eb96d5732f91c6E>
 - func[38] <_ZN4core3fmt5Write10write_char17h60efdbdfd77cd04aE>
 - func[39] <_ZN3std2io5Write9write_all17h2b497641c383c1c2E>
 - func[40] <_ZN4core3fmt5Write10write_char17hc15d9e049e32c338E>
 - func[41] <_ZN3std2io5Write9write_all17h4c673540e22a7825E>
 - func[42] <_ZN4core3fmt5Write9write_fmt17h2438519d8d7db450E>
 - func[43] <_ZN4core3fmt5Write9write_fmt17h9ac7a778133567cdE>
 - func[44] <_ZN3std9panicking12default_hook17had55ad0811906711E>
 - func[45] <_ZN4core3ops8function6FnOnce40call_once$u7b$$u7b$vtable.shim$u7d$$u7d$17h5217946a25668fdeE>
 - func[46] <_ZN3std4sync4once4Once9call_once28_$u7b$$u7b$closure$u7d$$u7d$17hca3f28696bfe6018E>
 - func[47] <_ZN3std9panicking11begin_panic17h4c37f88b45d6339dE>
 - func[48] <_ZN4core3ops8function6FnOnce40call_once$u7b$$u7b$vtable.shim$u7d$$u7d$17h9eb7082a48580bd9E>
 - func[49] <_ZN4core3ops8function6FnOnce40call_once$u7b$$u7b$vtable.shim$u7d$$u7d$17hab3cb5efd3f8166fE>
 - func[50] <_ZN5alloc4sync12Arc$LT$T$GT$9drop_slow17h75d572a3085302edE>
 - func[51] <_ZN4core3ptr18real_drop_in_place17h002503b23174cca1E>
 - func[52] <_ZN4core3ptr18real_drop_in_place17h1008d021a780f350E>
 - func[53] <_ZN4core3ptr18real_drop_in_place17h14c964a2795c8756E>
 - func[54] <_ZN4core3ptr18real_drop_in_place17h1a273616ec4b5ac9E>
 - func[55] <_ZN4core3ptr18real_drop_in_place17h2b3b83b2a1406e9dE>
 - func[56] <_ZN4core3ptr18real_drop_in_place17h3e8a74f436f6b428E>
 - func[57] <_ZN4core3ptr18real_drop_in_place17ha7c2802620da5d36E>
 - func[58] <_ZN4core3ptr18real_drop_in_place17hd65976e8626b1b88E>
 - func[59] <_ZN4core3ptr18real_drop_in_place17hffd50c820102285cE>
 - func[60] <_ZN4core6option15Option$LT$T$GT$6unwrap17h3f1ff6c63ca75a16E>
 - func[61] <_ZN4core6option15Option$LT$T$GT$6unwrap17hbe87f8a73e0525b2E>
 - func[62] <_ZN50_$LT$$RF$mut$u20$W$u20$as$u20$core..fmt..Write$GT$10write_char17h3ae93dd1c0eae2d8E>
 - func[63] <_ZN50_$LT$$RF$mut$u20$W$u20$as$u20$core..fmt..Write$GT$10write_char17h52ab12c1a9a7ed26E>
 - func[64] <_ZN50_$LT$$RF$mut$u20$W$u20$as$u20$core..fmt..Write$GT$10write_char17h56a1257173aa70e6E>
 - func[65] <_ZN5alloc3vec12Vec$LT$T$GT$7reserve17hb25b281955882348E>
 - func[66] <_ZN50_$LT$$RF$mut$u20$W$u20$as$u20$core..fmt..Write$GT$9write_fmt17h84d4595f10c6e9bdE>
 - func[67] <_ZN50_$LT$$RF$mut$u20$W$u20$as$u20$core..fmt..Write$GT$9write_fmt17he9274de8420ffd84E>
 - func[68] <_ZN50_$LT$$RF$mut$u20$W$u20$as$u20$core..fmt..Write$GT$9write_fmt17hf2a77fb1f44d03b9E>
 - func[69] <_ZN50_$LT$$RF$mut$u20$W$u20$as$u20$core..fmt..Write$GT$9write_str17h343be05a3736b678E>
 - func[70] <_ZN50_$LT$$RF$mut$u20$W$u20$as$u20$core..fmt..Write$GT$9write_str17h7543301949989357E>
 - func[71] <_ZN50_$LT$$RF$mut$u20$W$u20$as$u20$core..fmt..Write$GT$9write_str17h7b56425ef82031b0E>
 - func[72] <_ZN5alloc4sync12Arc$LT$T$GT$9drop_slow17hd1e1a2ec6dd20ab9E>
 - func[73] <_ZN3std2io8buffered18BufWriter$LT$W$GT$9flush_buf17h1e803465f6444bc3E>
 - func[74] <_ZN5alloc7raw_vec19RawVec$LT$T$C$A$GT$11allocate_in28_$u7b$$u7b$closure$u7d$$u7d$17h31c8dbb160d31216E>
 - func[75] <_ZN60_$LT$alloc..string..String$u20$as$u20$core..fmt..Display$GT$3fmt17h8bf31a0875beb2d8E>
 - func[76] <_ZN83_$LT$alloc..boxed..Box$LT$F$GT$$u20$as$u20$core..ops..function..FnOnce$LT$A$GT$$GT$9call_once17h471dcd76e3cc0616E>
 - func[77] <_ZN3std10sys_common11thread_info10ThreadInfo4with28_$u7b$$u7b$closure$u7d$$u7d$17he4fbfdba5ffe7524E>
 - func[78] <_ZN3std6thread4park17hfc506fb04ca50a64E>
 - func[79] <_ZN3std4sync7condvar7Condvar6verify17he54d47cc2b03c159E>
 - func[80] <_ZN3std10sys_common7condvar7Condvar4wait17h4a05f079cb079294E>
 - func[81] <_ZN3std9panicking15begin_panic_fmt17h6ebfed9e714cf511E>
 - func[82] <_ZN3std6thread6Thread3new17h6e1b1f283a53e9ccE>
 - func[83] <_ZN3std3ffi5c_str7CString18from_vec_unchecked17h5e469fd28170e461E>
 - func[84] <_ZN3std6thread6Thread6unpark17h94e6706e18930922E>
 - func[85] <_ZN3std3env7_var_os17h654abe0d5110b1baE>
 - func[86] <_ZN3std3sys4wasi11unsupported17h2c418a7ed20a0567E>
 - func[87] <_ZN3std3ffi5c_str104_$LT$impl$u20$core..convert..From$LT$std..ffi..c_str..NulError$GT$$u20$for$u20$std..io..error..Error$GT$4from17h68453f96202dc28eE>
 - func[88] <_ZN60_$LT$std..io..error..Error$u20$as$u20$core..fmt..Display$GT$3fmt17hab33489ae32428e1E>
 - func[89] <_ZN55_$LT$std..path..Display$u20$as$u20$core..fmt..Debug$GT$3fmt17h0986e0b7a0364423E>
 - func[90] <_ZN3std3env4args17h5d6872dcdc60322aE>
 - func[91] <_ZN3std3env7args_os17hd970d5551c7eb2e0E>
 - func[92] <_ZN73_$LT$std..env..Args$u20$as$u20$core..iter..traits..iterator..Iterator$GT$4next17h130ad00728ed1b35E>
 - func[93] <_ZN3std5error5Error5cause17h208489695af0fdeeE>
 - func[94] <_ZN3std5error5Error7type_id17he93b19cfb2e8e2acE>
 - func[95] <_ZN3std5error5Error9backtrace17h1368d825fc8df78cE>
 - func[96] <_ZN243_$LT$std..error..$LT$impl$u20$core..convert..From$LT$alloc..string..String$GT$$u20$for$u20$alloc..boxed..Box$LT$dyn$u20$std..error..Error$u2b$core..marker..Send$u2b$core..marker..Sync$GT$$GT$..from..StringError$u20$as$u20$std..error..Error$GT$11description17h0caa1b2504394f01E>
 - func[97] <_ZN244_$LT$std..error..$LT$impl$u20$core..convert..From$LT$alloc..string..String$GT$$u20$for$u20$alloc..boxed..Box$LT$dyn$u20$std..error..Error$u2b$core..marker..Send$u2b$core..marker..Sync$GT$$GT$..from..StringError$u20$as$u20$core..fmt..Display$GT$3fmt17h4896a95c62927851E>
 - func[98] <_ZN242_$LT$std..error..$LT$impl$u20$core..convert..From$LT$alloc..string..String$GT$$u20$for$u20$alloc..boxed..Box$LT$dyn$u20$std..error..Error$u2b$core..marker..Send$u2b$core..marker..Sync$GT$$GT$..from..StringError$u20$as$u20$core..fmt..Debug$GT$3fmt17hf375d57eb464f65fE>
 - func[99] <_ZN3std3sys4wasi17decode_error_kind17haa3a99fbe8bf835fE>
 - func[100] <_ZN72_$LT$std..io..buffered..BufWriter$LT$W$GT$$u20$as$u20$std..io..Write$GT$5write17h1cf6435e8f0d6314E>
 - func[101] <_ZN73_$LT$std..io..buffered..LineWriter$LT$W$GT$$u20$as$u20$std..io..Write$GT$5write17h88167627bef1f5b5E>
 - func[102] <_ZN3std3sys4wasi2os12error_string17h4a5d1b4d37616116E>
 - func[103] <_ZN3std2io5impls71_$LT$impl$u20$std..io..Write$u20$for$u20$alloc..boxed..Box$LT$W$GT$$GT$5write17h1c9ea699209651c9E>
 - func[104] <_ZN3std2io5impls71_$LT$impl$u20$std..io..Write$u20$for$u20$alloc..boxed..Box$LT$W$GT$$GT$14write_vectored17h1600ea5da08cdc03E>
 - func[105] <_ZN3std2io5impls71_$LT$impl$u20$std..io..Write$u20$for$u20$alloc..boxed..Box$LT$W$GT$$GT$5flush17hee9bf9fcdcb912feE>
 - func[106] <_ZN3std2io5impls71_$LT$impl$u20$std..io..Write$u20$for$u20$alloc..boxed..Box$LT$W$GT$$GT$9write_all17h90beacfdfa1f3b4dE>
 - func[107] <_ZN3std2io5impls71_$LT$impl$u20$std..io..Write$u20$for$u20$alloc..boxed..Box$LT$W$GT$$GT$9write_fmt17h0f033bf5e9e3c25bE>
 - func[108] <_ZN60_$LT$std..io..stdio..StderrRaw$u20$as$u20$std..io..Write$GT$5write17h4e43e82542fc3b2fE>
 - func[109] <_ZN3std10sys_common11at_exit_imp4push17h19d98699c9c6e025E>
 - func[110] <_ZN3std2io5stdio6stdout17h80e5048511b22f87E>
 - func[111] <_ZN57_$LT$std..io..stdio..Stdout$u20$as$u20$std..io..Write$GT$9write_fmt17h77bee4200809680fE>
 - func[112] <_ZN3std2io5stdio9set_panic17h667ab54a2f5594a1E>
 - func[113] <_ZN3std2io5stdio6_print17hd34db9e38b7e5054E>
 - func[114] <_ZN3std2io5Write14write_vectored17h353d72a3a24ef542E>
 - func[115] <_ZN3std2io5Write9write_fmt17he4f9e0467028fa4dE>
 - func[116] <_ZN80_$LT$std..io..Write..write_fmt..Adaptor$LT$T$GT$$u20$as$u20$core..fmt..Write$GT$9write_str17h1bf561aa9168750dE>
 - func[117] <_ZN80_$LT$std..io..Write..write_fmt..Adaptor$LT$T$GT$$u20$as$u20$core..fmt..Write$GT$9write_str17h4e79fe03d48f26f2E>
 - func[118] <_ZN55_$LT$std..path..PathBuf$u20$as$u20$core..fmt..Debug$GT$3fmt17haf00f8624de4aae8E>
 - func[119] <_ZN59_$LT$std..process..ChildStdin$u20$as$u20$std..io..Write$GT$5flush17h09bba869abdaa1d8E>
 - func[120] <_ZN3std7process5abort17hb8a2b6667846dd65E>
 - func[121] <_ZN3std3sys4wasi14abort_internal17he4f0a6618c91d182E>
 - func[122] <_ZN3std4sync4once4Once10call_inner17h9ff98aa059748033E>
 - func[123] <_ZN70_$LT$std..sync..once..WaiterQueue$u20$as$u20$core..ops..drop..Drop$GT$4drop17h520a864168252b15E>
 - func[124] <_ZN91_$LT$std..sys_common..backtrace.._print..DisplayBacktrace$u20$as$u20$core..fmt..Display$GT$3fmt17hc9f54135ac839bf3E>
 - func[125] <_ZN3std10sys_common9backtrace10_print_fmt28_$u7b$$u7b$closure$u7d$$u7d$17hfde964fa31647e6bE>
 - func[126] <_ZN3std10sys_common9backtrace28__rust_begin_short_backtrace17h9a086315f308a9f7E>
 - func[127] <_ZN3std3sys4wasi7condvar7Condvar4wait17ha1fd694d92639d58E>
 - func[128] <_ZN82_$LT$std..sys_common..poison..PoisonError$LT$T$GT$$u20$as$u20$core..fmt..Debug$GT$3fmt17h492372f491e0be27E>
 - func[129] <_ZN76_$LT$std..sys_common..thread_local..Key$u20$as$u20$core..ops..drop..Drop$GT$4drop17h1c8ff39e518cfb04E>
 - func[130] <_ZN3std10sys_common4util10dumb_print17h3a1fcafb52022fe9E>
 - func[131] <_ZN3std10sys_common4util5abort17h66713edd5181f7feE>
 - func[132] <_ZN3std5alloc24default_alloc_error_hook17h42d9c6ae543c8dd7E>
 - func[133] <rust_oom>
 - func[134] <__rdl_alloc>
 - func[135] <__rdl_dealloc>
 - func[136] <__rdl_realloc>
 - func[137] <_ZN3std9panicking12default_hook28_$u7b$$u7b$closure$u7d$$u7d$17haed2194222b3e512E>
 - func[138] <_ZN3std9panicking3try7do_call17hba2245c23b34bfc8E>
 - func[139] <rust_begin_unwind>
 - func[140] <_ZN3std9panicking20rust_panic_with_hook17h7f90b1acd5ff521cE>
 - func[141] <_ZN90_$LT$std..panicking..begin_panic_handler..PanicPayload$u20$as$u20$core..panic..BoxMeUp$GT$8take_box17hf68c26a79265806aE>
 - func[142] <_ZN90_$LT$std..panicking..begin_panic_handler..PanicPayload$u20$as$u20$core..panic..BoxMeUp$GT$3get17h2f13d8d04478e036E>
 - func[143] <_ZN91_$LT$std..panicking..begin_panic..PanicPayload$LT$A$GT$$u20$as$u20$core..panic..BoxMeUp$GT$8take_box17hb16aceddc760d867E>
 - func[144] <_ZN91_$LT$std..panicking..begin_panic..PanicPayload$LT$A$GT$$u20$as$u20$core..panic..BoxMeUp$GT$3get17h1e86d8331d944ed0E>
 - func[145] <rust_panic>
 - func[146] <_ZN3std2rt19lang_start_internal17hb21784bb01c7c753E>
 - func[147] <_ZN62_$LT$std..ffi..c_str..NulError$u20$as$u20$core..fmt..Debug$GT$3fmt17hdbdc592c640fe94eE>
 - func[148] <_ZN3std3sys4wasi7process8ExitCode6as_i3217h1909ac59d2547a0aE>
 - func[149] <__rust_maybe_catch_panic>
 - func[150] <__rust_start_panic>
 - func[151] <_ZN4wasi5error5Error9raw_error17ha81beb7b4fa33a3dE>
 - func[152] <_ZN4wasi13lib_generated8args_get17ha2cc1da03f4386e9E>
 - func[153] <_ZN4wasi13lib_generated14args_sizes_get17h5f7f470ade5347b9E>
 - func[154] <_ZN4wasi13lib_generated8fd_write17hcbb26a9193d90ff3E>
 - func[155] <_ZN9backtrace5print12BacktraceFmt3new17h3cebab89049ca43eE>
 - func[156] <_ZN9backtrace5print12BacktraceFmt11add_context17h1dba2b5dbc8bc178E>
 - func[157] <_ZN9backtrace5print12BacktraceFmt6finish17h5861df54136c954dE>
 - func[158] <abort>
 - func[159] <malloc>
 - func[160] <dlmalloc>
 - func[161] <free>
 - func[162] <dlfree>
 - func[163] <calloc>
 - func[164] <realloc>
 - func[165] <dispose_chunk>
 - func[166] <internal_memalign>
 - func[167] <aligned_alloc>
 - func[168] <_Exit>
 - func[169] <__wasilibc_populate_libpreopen>
 - func[170] <__wasilibc_populate_environ>
 - func[171] <sbrk>
 - func[172] <dummy>
 - func[173] <__prepare_for_exit>
 - func[174] <getenv>
 - func[175] <memmove>
 - func[176] <strlen>
 - func[177] <strerror>
 - func[178] <strerror_r>
 - func[179] <__strchrnul>
 - func[180] <memcpy>
 - func[181] <memset>
 - func[182] <strncmp>
 - func[183] <memcmp>
 - func[184] <dummy>
 - func[185] <__lctrans>
 - func[186] <_ZN5alloc5alloc18handle_alloc_error17h372aacb639e2de27E>
 - func[187] <_ZN5alloc7raw_vec17capacity_overflow17h545b4b1a9ba97ff8E>
 - func[188] <_ZN5alloc6string13FromUtf8Error10into_bytes17h03cb5aea6ff20b89E>
 - func[189] <_ZN5alloc6string104_$LT$impl$u20$core..convert..From$LT$alloc..string..String$GT$$u20$for$u20$alloc..vec..Vec$LT$u8$GT$$GT$4from17h8c28c811a2a829ddE>
 - func[190] <_ZN4core3ptr18real_drop_in_place17h38a660153738b32fE>
 - func[191] <_ZN4core3ptr18real_drop_in_place17h650094a6a70338f7E>
 - func[192] <_ZN4core9panicking18panic_bounds_check17h42ce3eaf53169acbE>
 - func[193] <_ZN4core9panicking5panic17hc60400b47c695700E>
 - func[194] <_ZN4core5slice20slice_index_len_fail17hfc4485e8c33f2d47E>
 - func[195] <_ZN4core5slice22slice_index_order_fail17heebd88c1be3dadefE>
 - func[196] <_ZN4core3fmt9Formatter3pad17h2edb8e7d7e605d23E>
 - func[197] <_ZN4core3str16slice_error_fail17he3cd070c8cb5f5f5E>
 - func[198] <_ZN4core9panicking9panic_fmt17h8eef3a14480998beE>
 - func[199] <_ZN4core3fmt3num3imp52_$LT$impl$u20$core..fmt..Display$u20$for$u20$u32$GT$3fmt17h81afefe9a006429dE>
 - func[200] <_ZN4core3fmt5write17h8876819fabc0b258E>
 - func[201] <_ZN71_$LT$core..ops..range..Range$LT$Idx$GT$$u20$as$u20$core..fmt..Debug$GT$3fmt17hf1b5fd652ff8f28dE>
 - func[202] <_ZN4core3fmt3num52_$LT$impl$u20$core..fmt..Debug$u20$for$u20$usize$GT$3fmt17h3b17d39de7fdc1f1E>
 - func[203] <_ZN36_$LT$T$u20$as$u20$core..any..Any$GT$7type_id17h47a9f9063b0c3dbcE>
 - func[204] <_ZN60_$LT$core..cell..BorrowError$u20$as$u20$core..fmt..Debug$GT$3fmt17hf295ea4ef037c8ddE>
 - func[205] <_ZN63_$LT$core..cell..BorrowMutError$u20$as$u20$core..fmt..Debug$GT$3fmt17habbe3fa4e4e9f71eE>
 - func[206] <_ZN82_$LT$core..char..EscapeDebug$u20$as$u20$core..iter..traits..iterator..Iterator$GT$4next17h0ef1301de9a0af9aE>
 - func[207] <_ZN4core5panic9PanicInfo7message17hb5a2f77065892d6eE>
 - func[208] <_ZN4core5panic9PanicInfo8location17h198cc11e8ca65b7cE>
 - func[209] <_ZN44_$LT$$RF$T$u20$as$u20$core..fmt..Display$GT$3fmt17h9fac0349c74cb035E>
 - func[210] <_ZN4core5panic8Location20internal_constructor17h907b86da1c041b0eE>
 - func[211] <_ZN4core5panic8Location4file17h916ad762787e0b09E>
 - func[212] <_ZN4core5panic8Location4line17h51d324d36825685fE>
 - func[213] <_ZN4core5panic8Location6column17h92ef532fcdc90d17E>
 - func[214] <_ZN60_$LT$core..panic..Location$u20$as$u20$core..fmt..Display$GT$3fmt17h907319866752d049E>
 - func[215] <_ZN4core3fmt8builders11DebugStruct5field17hbd0e2a659c73823bE>
 - func[216] <_ZN4core6option13expect_failed17h48822fc6fce9003fE>
 - func[217] <_ZN42_$LT$$RF$T$u20$as$u20$core..fmt..Debug$GT$3fmt17haa94c1a554592613E>
 - func[218] <_ZN4core6result13unwrap_failed17h89d8c4399f5be1adE>
 - func[219] <_ZN63_$LT$core..ffi..VaListImpl$u20$as$u20$core..ops..drop..Drop$GT$4drop17h33b53169660fa804E>
 - func[220] <_ZN4core5slice6memchr6memchr17h244fba075962fc22E>
 - func[221] <_ZN4core5slice6memchr7memrchr17h0b3ee6c1c240e3c2E>
 - func[222] <_ZN4core5slice25slice_index_overflow_fail17h8a1eef5e63367db8E>
 - func[223] <_ZN4core3str5lossy9Utf8Lossy10from_bytes17h7dab23bdc987c3f1E>
 - func[224] <_ZN4core3str5lossy9Utf8Lossy6chunks17h678e80bba7d8a004E>
 - func[225] <_ZN96_$LT$core..str..lossy..Utf8LossyChunksIter$u20$as$u20$core..iter..traits..iterator..Iterator$GT$4next17h3cc4f6dc97be609eE>
 - func[226] <_ZN66_$LT$core..str..lossy..Utf8Lossy$u20$as$u20$core..fmt..Display$GT$3fmt17h01e01d86d9c10b50E>
 - func[227] <_ZN4core7unicode9bool_trie8BoolTrie6lookup17h84f73bedeaa3b078E>
 - func[228] <_ZN4core7unicode9printable12is_printable17hed06e069218dc178E>
 - func[229] <_ZN4core3str6traits101_$LT$impl$u20$core..slice..SliceIndex$LT$str$GT$$u20$for$u20$core..ops..range..Range$LT$usize$GT$$GT$5index28_$u7b$$u7b$closure$u7d$$u7d$17he28276d81535378cE>
 - func[230] <_ZN4core3fmt3num52_$LT$impl$u20$core..fmt..LowerHex$u20$for$u20$i8$GT$3fmt17hc0bd685e8a486811E>
 - func[231] <_ZN4core3str9from_utf817hc9d846e05f440661E>
 - func[232] <_ZN4core3str19run_utf8_validation17h7e6a021aaed33521E>
 - func[233] <_ZN4core3fmt3num3imp51_$LT$impl$u20$core..fmt..Display$u20$for$u20$u8$GT$3fmt17h6bbc810392989f25E>
 - func[234] <_ZN4core3fmt8builders10DebugInner5entry17h4245dad62c1db899E>
 - func[235] <_ZN41_$LT$char$u20$as$u20$core..fmt..Debug$GT$3fmt17h9a3163a3c6013c6cE>
 - func[236] <_ZN68_$LT$core..fmt..builders..PadAdapter$u20$as$u20$core..fmt..Write$GT$9write_str17he40b71e6e495ad7cE>
 - func[237] <_ZN4core3fmt8builders10DebugTuple5field17hbd38ecaa7052e2cfE>
 - func[238] <_ZN4core3fmt8builders10DebugTuple6finish17ha689661cc00c12a4E>
 - func[239] <_ZN4core3fmt8builders8DebugSet5entry17hf39c7622bed830d6E>
 - func[240] <_ZN4core3fmt8builders9DebugList6finish17h8425cc974c8800a1E>
 - func[241] <_ZN4core3fmt5Write10write_char17h0a40abd75ed3683dE>
 - func[242] <_ZN4core3fmt5Write9write_fmt17hbfa684fcf67a9237E>
 - func[243] <_ZN50_$LT$$RF$mut$u20$W$u20$as$u20$core..fmt..Write$GT$9write_str17h071370f55648a353E>
 - func[244] <_ZN50_$LT$$RF$mut$u20$W$u20$as$u20$core..fmt..Write$GT$10write_char17hca1d204488cb89c9E>
 - func[245] <_ZN50_$LT$$RF$mut$u20$W$u20$as$u20$core..fmt..Write$GT$9write_fmt17h297d40b2f7ee4bd8E>
 - func[246] <_ZN4core3fmt10ArgumentV110show_usize17h659f2e7b81f60987E>
 - func[247] <_ZN4core3fmt3num3imp7fmt_u6417h042ebedf17751bd0E>
 - func[248] <_ZN59_$LT$core..fmt..Arguments$u20$as$u20$core..fmt..Display$GT$3fmt17h1d4c2ae0c05a3698E>
 - func[249] <_ZN4core3fmt9Formatter12pad_integral17hfef5805f826bffbfE>
 - func[250] <_ZN4core3fmt9Formatter12pad_integral12write_prefix17h7320e38828a59752E>
 - func[251] <_ZN4core3fmt9Formatter9write_str17haa5886101a13330aE>
 - func[252] <_ZN4core3fmt9Formatter9write_fmt17h703d37c837f1e686E>
 - func[253] <_ZN4core3fmt9Formatter9alternate17haad4b8880f5e5b7bE>
 - func[254] <_ZN4core3fmt9Formatter15debug_lower_hex17ha70a7ac18ca965afE>
 - func[255] <_ZN4core3fmt9Formatter15debug_upper_hex17h5b80b9b67b737f51E>
 - func[256] <_ZN4core3fmt9Formatter11debug_tuple17h537225ecd55cb5d7E>
 - func[257] <_ZN4core3fmt9Formatter10debug_list17h3e245a8d65529e2cE>
 - func[258] <_ZN57_$LT$core..fmt..Formatter$u20$as$u20$core..fmt..Write$GT$10write_char17hd0c803174082e12eE>
 - func[259] <_ZN40_$LT$str$u20$as$u20$core..fmt..Debug$GT$3fmt17h00c99ec58e8a423cE>
 - func[260] <_ZN42_$LT$str$u20$as$u20$core..fmt..Display$GT$3fmt17h1f0b63dac53d0aecE>
 - func[261] <_ZN4core3fmt3num53_$LT$impl$u20$core..fmt..LowerHex$u20$for$u20$i32$GT$3fmt17h58623d8131b79122E>
 - func[262] <_ZN4core7unicode9printable5check17haa15d32184b13ee5E>
 - func[263] <_ZN4core7unicode6tables16derived_property15Grapheme_Extend17hae9f1cc446db1bb7E>
 - func[264] <_ZN57_$LT$core..str..Utf8Error$u20$as$u20$core..fmt..Debug$GT$3fmt17h58be16dd691a675aE>
 - func[265] <_ZN4core3fmt3num52_$LT$impl$u20$core..fmt..UpperHex$u20$for$u20$i8$GT$3fmt17hb07de94750255221E>
 - func[266] <_ZN4core3fmt3num53_$LT$impl$u20$core..fmt..UpperHex$u20$for$u20$i32$GT$3fmt17he6067a6f8103a390E>
 - func[267] <_ZN4core3fmt3num3imp52_$LT$impl$u20$core..fmt..Display$u20$for$u20$i32$GT$3fmt17ha3fe23ff267fac81E>
 - func[268] <_ZN42_$LT$$RF$T$u20$as$u20$core..fmt..Debug$GT$3fmt17h43093690dcf30e1dE>
 - func[269] <_ZN42_$LT$$RF$T$u20$as$u20$core..fmt..Debug$GT$3fmt17h9bfacaf2c5539e85E>
 - func[270] <_ZN42_$LT$$RF$T$u20$as$u20$core..fmt..Debug$GT$3fmt17ha8d8323b2b975936E>
Custom:
 - name: "producers"
